
bin/kernel:     file format elf32-tradlittlemips


Disassembly of section .text:

80010000 <kern_entry>:
80010000:	01 80 1d 3c 00 00 bd 27 06 40 00 0c 00 00 00 00     ...<...'.@......

80010010 <spin>:
80010010:	08004004 	j	80010010 <spin>
80010014:	00000000 	nop

80010018 <kern_init>:
80010018:	27bdffe0 	addiu	sp,sp,-32
8001001c:	afbf001c 	sw	ra,28(sp)
80010020:	afbe0018 	sw	s8,24(sp)
80010024:	03a0f021 	move	s8,sp
80010028:	3c028002 	lui	v0,0x8002
8001002c:	2443565c 	addiu	v1,v0,22108
80010030:	3c028002 	lui	v0,0x8002
80010034:	2442502c 	addiu	v0,v0,20524
80010038:	00621023 	subu	v0,v1,v0
8001003c:	3c038002 	lui	v1,0x8002
80010040:	2464502c 	addiu	a0,v1,20524
80010044:	00002821 	move	a1,zero
80010048:	00403021 	move	a2,v0
8001004c:	0c005864 	jal	80016190 <memset>
80010050:	00000000 	nop
80010054:	0c004615 	jal	80011854 <cons_init>
80010058:	00000000 	nop
8001005c:	3c028001 	lui	v0,0x8001
80010060:	24427144 	addiu	v0,v0,28996
80010064:	afc20010 	sw	v0,16(s8)
80010068:	3c028001 	lui	v0,0x8001
8001006c:	24447160 	addiu	a0,v0,29024
80010070:	8fc50010 	lw	a1,16(s8)
80010074:	0c0040d7 	jal	8001035c <cprintf>
80010078:	00000000 	nop
8001007c:	0c00439f 	jal	80010e7c <print_kerninfo>
80010080:	00000000 	nop
80010084:	0c004067 	jal	8001019c <grade_backtrace>
80010088:	00000000 	nop
8001008c:	0c004acd 	jal	80012b34 <pmm_init>
80010090:	00000000 	nop
80010094:	0c0046a7 	jal	80011a9c <pic_init>
80010098:	00000000 	nop
8001009c:	0c0046eb 	jal	80011bac <idt_init>
800100a0:	00000000 	nop
800100a4:	0c00453c 	jal	800114f0 <clock_init>
800100a8:	00000000 	nop
800100ac:	0c0046bd 	jal	80011af4 <intr_enable>
800100b0:	00000000 	nop
800100b4:	0800402d 	j	800100b4 <kern_init+0x9c>
800100b8:	00000000 	nop

800100bc <grade_backtrace2>:
800100bc:	27bdffe8 	addiu	sp,sp,-24
800100c0:	afbf0014 	sw	ra,20(sp)
800100c4:	afbe0010 	sw	s8,16(sp)
800100c8:	03a0f021 	move	s8,sp
800100cc:	afc40018 	sw	a0,24(s8)
800100d0:	afc5001c 	sw	a1,28(s8)
800100d4:	afc60020 	sw	a2,32(s8)
800100d8:	afc70024 	sw	a3,36(s8)
800100dc:	00002021 	move	a0,zero
800100e0:	00002821 	move	a1,zero
800100e4:	00003021 	move	a2,zero
800100e8:	0c00452c 	jal	800114b0 <mon_backtrace>
800100ec:	00000000 	nop
800100f0:	03c0e821 	move	sp,s8
800100f4:	8fbf0014 	lw	ra,20(sp)
800100f8:	8fbe0010 	lw	s8,16(sp)
800100fc:	27bd0018 	addiu	sp,sp,24
80010100:	03e00008 	jr	ra
80010104:	00000000 	nop

80010108 <grade_backtrace1>:
80010108:	27bdffe8 	addiu	sp,sp,-24
8001010c:	afbf0014 	sw	ra,20(sp)
80010110:	afbe0010 	sw	s8,16(sp)
80010114:	03a0f021 	move	s8,sp
80010118:	afc40018 	sw	a0,24(s8)
8001011c:	afc5001c 	sw	a1,28(s8)
80010120:	8fc40018 	lw	a0,24(s8)
80010124:	27c50018 	addiu	a1,s8,24
80010128:	8fc3001c 	lw	v1,28(s8)
8001012c:	27c2001c 	addiu	v0,s8,28
80010130:	00603021 	move	a2,v1
80010134:	00403821 	move	a3,v0
80010138:	0c00402f 	jal	800100bc <grade_backtrace2>
8001013c:	00000000 	nop
80010140:	03c0e821 	move	sp,s8
80010144:	8fbf0014 	lw	ra,20(sp)
80010148:	8fbe0010 	lw	s8,16(sp)
8001014c:	27bd0018 	addiu	sp,sp,24
80010150:	03e00008 	jr	ra
80010154:	00000000 	nop

80010158 <grade_backtrace0>:
80010158:	27bdffe8 	addiu	sp,sp,-24
8001015c:	afbf0014 	sw	ra,20(sp)
80010160:	afbe0010 	sw	s8,16(sp)
80010164:	03a0f021 	move	s8,sp
80010168:	afc40018 	sw	a0,24(s8)
8001016c:	afc5001c 	sw	a1,28(s8)
80010170:	afc60020 	sw	a2,32(s8)
80010174:	8fc40018 	lw	a0,24(s8)
80010178:	8fc50020 	lw	a1,32(s8)
8001017c:	0c004042 	jal	80010108 <grade_backtrace1>
80010180:	00000000 	nop
80010184:	03c0e821 	move	sp,s8
80010188:	8fbf0014 	lw	ra,20(sp)
8001018c:	8fbe0010 	lw	s8,16(sp)
80010190:	27bd0018 	addiu	sp,sp,24
80010194:	03e00008 	jr	ra
80010198:	00000000 	nop

8001019c <grade_backtrace>:
8001019c:	27bdffe8 	addiu	sp,sp,-24
800101a0:	afbf0014 	sw	ra,20(sp)
800101a4:	afbe0010 	sw	s8,16(sp)
800101a8:	03a0f021 	move	s8,sp
800101ac:	3c028001 	lui	v0,0x8001
800101b0:	24420018 	addiu	v0,v0,24
800101b4:	00002021 	move	a0,zero
800101b8:	00402821 	move	a1,v0
800101bc:	3c06ffff 	lui	a2,0xffff
800101c0:	0c004056 	jal	80010158 <grade_backtrace0>
800101c4:	00000000 	nop
800101c8:	03c0e821 	move	sp,s8
800101cc:	8fbf0014 	lw	ra,20(sp)
800101d0:	8fbe0010 	lw	s8,16(sp)
800101d4:	27bd0018 	addiu	sp,sp,24
800101d8:	03e00008 	jr	ra
800101dc:	00000000 	nop

800101e0 <lab1_print_cur_status>:
800101e0:	27bdfff8 	addiu	sp,sp,-8
800101e4:	afbe0004 	sw	s8,4(sp)
800101e8:	03a0f021 	move	s8,sp
800101ec:	03c0e821 	move	sp,s8
800101f0:	8fbe0004 	lw	s8,4(sp)
800101f4:	27bd0008 	addiu	sp,sp,8
800101f8:	03e00008 	jr	ra
800101fc:	00000000 	nop

80010200 <lab1_switch_to_user>:
80010200:	27bdfff8 	addiu	sp,sp,-8
80010204:	afbe0004 	sw	s8,4(sp)
80010208:	03a0f021 	move	s8,sp
8001020c:	03c0e821 	move	sp,s8
80010210:	8fbe0004 	lw	s8,4(sp)
80010214:	27bd0008 	addiu	sp,sp,8
80010218:	03e00008 	jr	ra
8001021c:	00000000 	nop

80010220 <lab1_switch_to_kernel>:
80010220:	27bdfff8 	addiu	sp,sp,-8
80010224:	afbe0004 	sw	s8,4(sp)
80010228:	03a0f021 	move	s8,sp
8001022c:	03c0e821 	move	sp,s8
80010230:	8fbe0004 	lw	s8,4(sp)
80010234:	27bd0008 	addiu	sp,sp,8
80010238:	03e00008 	jr	ra
8001023c:	00000000 	nop

80010240 <lab1_switch_test>:
80010240:	27bdffe8 	addiu	sp,sp,-24
80010244:	afbf0014 	sw	ra,20(sp)
80010248:	afbe0010 	sw	s8,16(sp)
8001024c:	03a0f021 	move	s8,sp
80010250:	0c004078 	jal	800101e0 <lab1_print_cur_status>
80010254:	00000000 	nop
80010258:	3c028001 	lui	v0,0x8001
8001025c:	24447168 	addiu	a0,v0,29032
80010260:	0c0040d7 	jal	8001035c <cprintf>
80010264:	00000000 	nop
80010268:	0c004080 	jal	80010200 <lab1_switch_to_user>
8001026c:	00000000 	nop
80010270:	0c004078 	jal	800101e0 <lab1_print_cur_status>
80010274:	00000000 	nop
80010278:	3c028001 	lui	v0,0x8001
8001027c:	24447188 	addiu	a0,v0,29064
80010280:	0c0040d7 	jal	8001035c <cprintf>
80010284:	00000000 	nop
80010288:	0c004088 	jal	80010220 <lab1_switch_to_kernel>
8001028c:	00000000 	nop
80010290:	0c004078 	jal	800101e0 <lab1_print_cur_status>
80010294:	00000000 	nop
80010298:	03c0e821 	move	sp,s8
8001029c:	8fbf0014 	lw	ra,20(sp)
800102a0:	8fbe0010 	lw	s8,16(sp)
800102a4:	27bd0018 	addiu	sp,sp,24
800102a8:	03e00008 	jr	ra
800102ac:	00000000 	nop

800102b0 <cputch>:
800102b0:	27bdffe8 	addiu	sp,sp,-24
800102b4:	afbf0014 	sw	ra,20(sp)
800102b8:	afbe0010 	sw	s8,16(sp)
800102bc:	03a0f021 	move	s8,sp
800102c0:	afc40018 	sw	a0,24(s8)
800102c4:	afc5001c 	sw	a1,28(s8)
800102c8:	8fc40018 	lw	a0,24(s8)
800102cc:	0c004629 	jal	800118a4 <cons_putc>
800102d0:	00000000 	nop
800102d4:	8fc2001c 	lw	v0,28(s8)
800102d8:	8c420000 	lw	v0,0(v0)
800102dc:	24430001 	addiu	v1,v0,1
800102e0:	8fc2001c 	lw	v0,28(s8)
800102e4:	ac430000 	sw	v1,0(v0)
800102e8:	03c0e821 	move	sp,s8
800102ec:	8fbf0014 	lw	ra,20(sp)
800102f0:	8fbe0010 	lw	s8,16(sp)
800102f4:	27bd0018 	addiu	sp,sp,24
800102f8:	03e00008 	jr	ra
800102fc:	00000000 	nop

80010300 <vcprintf>:
80010300:	27bdffe0 	addiu	sp,sp,-32
80010304:	afbf001c 	sw	ra,28(sp)
80010308:	afbe0018 	sw	s8,24(sp)
8001030c:	03a0f021 	move	s8,sp
80010310:	afc40020 	sw	a0,32(s8)
80010314:	afc50024 	sw	a1,36(s8)
80010318:	afc00010 	sw	zero,16(s8)
8001031c:	3c028001 	lui	v0,0x8001
80010320:	244202b0 	addiu	v0,v0,688
80010324:	00402021 	move	a0,v0
80010328:	27c20010 	addiu	v0,s8,16
8001032c:	00402821 	move	a1,v0
80010330:	8fc60020 	lw	a2,32(s8)
80010334:	8fc70024 	lw	a3,36(s8)
80010338:	0c005a54 	jal	80016950 <vprintfmt>
8001033c:	00000000 	nop
80010340:	8fc20010 	lw	v0,16(s8)
80010344:	03c0e821 	move	sp,s8
80010348:	8fbf001c 	lw	ra,28(sp)
8001034c:	8fbe0018 	lw	s8,24(sp)
80010350:	27bd0020 	addiu	sp,sp,32
80010354:	03e00008 	jr	ra
80010358:	00000000 	nop

8001035c <cprintf>:
8001035c:	27bdffe0 	addiu	sp,sp,-32
80010360:	afbf001c 	sw	ra,28(sp)
80010364:	afbe0018 	sw	s8,24(sp)
80010368:	03a0f021 	move	s8,sp
8001036c:	afc50024 	sw	a1,36(s8)
80010370:	afc60028 	sw	a2,40(s8)
80010374:	afc7002c 	sw	a3,44(s8)
80010378:	afc40020 	sw	a0,32(s8)
8001037c:	27c20024 	addiu	v0,s8,36
80010380:	afc20014 	sw	v0,20(s8)
80010384:	8fc20014 	lw	v0,20(s8)
80010388:	8fc40020 	lw	a0,32(s8)
8001038c:	00402821 	move	a1,v0
80010390:	0c0040c0 	jal	80010300 <vcprintf>
80010394:	00000000 	nop
80010398:	afc20010 	sw	v0,16(s8)
8001039c:	8fc20010 	lw	v0,16(s8)
800103a0:	03c0e821 	move	sp,s8
800103a4:	8fbf001c 	lw	ra,28(sp)
800103a8:	8fbe0018 	lw	s8,24(sp)
800103ac:	27bd0020 	addiu	sp,sp,32
800103b0:	03e00008 	jr	ra
800103b4:	00000000 	nop

800103b8 <cputchar>:
800103b8:	27bdffe8 	addiu	sp,sp,-24
800103bc:	afbf0014 	sw	ra,20(sp)
800103c0:	afbe0010 	sw	s8,16(sp)
800103c4:	03a0f021 	move	s8,sp
800103c8:	afc40018 	sw	a0,24(s8)
800103cc:	8fc40018 	lw	a0,24(s8)
800103d0:	0c004629 	jal	800118a4 <cons_putc>
800103d4:	00000000 	nop
800103d8:	03c0e821 	move	sp,s8
800103dc:	8fbf0014 	lw	ra,20(sp)
800103e0:	8fbe0010 	lw	s8,16(sp)
800103e4:	27bd0018 	addiu	sp,sp,24
800103e8:	03e00008 	jr	ra
800103ec:	00000000 	nop

800103f0 <cputs>:
800103f0:	27bdffe0 	addiu	sp,sp,-32
800103f4:	afbf001c 	sw	ra,28(sp)
800103f8:	afbe0018 	sw	s8,24(sp)
800103fc:	03a0f021 	move	s8,sp
80010400:	afc40020 	sw	a0,32(s8)
80010404:	afc00014 	sw	zero,20(s8)
80010408:	0800410a 	j	80010428 <cputs+0x38>
8001040c:	00000000 	nop
80010410:	93c30010 	lbu	v1,16(s8)
80010414:	27c20014 	addiu	v0,s8,20
80010418:	00602021 	move	a0,v1
8001041c:	00402821 	move	a1,v0
80010420:	0c0040ac 	jal	800102b0 <cputch>
80010424:	00000000 	nop
80010428:	8fc20020 	lw	v0,32(s8)
8001042c:	90420000 	lbu	v0,0(v0)
80010430:	a3c20010 	sb	v0,16(s8)
80010434:	93c20010 	lbu	v0,16(s8)
80010438:	0002102b 	sltu	v0,zero,v0
8001043c:	304200ff 	andi	v0,v0,0xff
80010440:	8fc30020 	lw	v1,32(s8)
80010444:	24630001 	addiu	v1,v1,1
80010448:	afc30020 	sw	v1,32(s8)
8001044c:	1440fff0 	bnez	v0,80010410 <cputs+0x20>
80010450:	00000000 	nop
80010454:	27c20014 	addiu	v0,s8,20
80010458:	2404000a 	li	a0,10
8001045c:	00402821 	move	a1,v0
80010460:	0c0040ac 	jal	800102b0 <cputch>
80010464:	00000000 	nop
80010468:	8fc20014 	lw	v0,20(s8)
8001046c:	03c0e821 	move	sp,s8
80010470:	8fbf001c 	lw	ra,28(sp)
80010474:	8fbe0018 	lw	s8,24(sp)
80010478:	27bd0020 	addiu	sp,sp,32
8001047c:	03e00008 	jr	ra
80010480:	00000000 	nop

80010484 <getchar>:
80010484:	27bdffe0 	addiu	sp,sp,-32
80010488:	afbf001c 	sw	ra,28(sp)
8001048c:	afbe0018 	sw	s8,24(sp)
80010490:	03a0f021 	move	s8,sp
80010494:	0c00463d 	jal	800118f4 <cons_getc>
80010498:	00000000 	nop
8001049c:	afc20010 	sw	v0,16(s8)
800104a0:	8fc20010 	lw	v0,16(s8)
800104a4:	1040fffb 	beqz	v0,80010494 <getchar+0x10>
800104a8:	00000000 	nop
800104ac:	8fc20010 	lw	v0,16(s8)
800104b0:	03c0e821 	move	sp,s8
800104b4:	8fbf001c 	lw	ra,28(sp)
800104b8:	8fbe0018 	lw	s8,24(sp)
800104bc:	27bd0020 	addiu	sp,sp,32
800104c0:	03e00008 	jr	ra
800104c4:	00000000 	nop

800104c8 <readline>:
800104c8:	27bdffe0 	addiu	sp,sp,-32
800104cc:	afbf001c 	sw	ra,28(sp)
800104d0:	afbe0018 	sw	s8,24(sp)
800104d4:	03a0f021 	move	s8,sp
800104d8:	afc40020 	sw	a0,32(s8)
800104dc:	8fc20020 	lw	v0,32(s8)
800104e0:	10400006 	beqz	v0,800104fc <readline+0x34>
800104e4:	00000000 	nop
800104e8:	3c028001 	lui	v0,0x8001
800104ec:	244471a8 	addiu	a0,v0,29096
800104f0:	8fc50020 	lw	a1,32(s8)
800104f4:	0c0040d7 	jal	8001035c <cprintf>
800104f8:	00000000 	nop
800104fc:	afc00014 	sw	zero,20(s8)
80010500:	08004143 	j	8001050c <readline+0x44>
80010504:	00000000 	nop
80010508:	00000000 	nop
8001050c:	0c004121 	jal	80010484 <getchar>
80010510:	00000000 	nop
80010514:	afc20010 	sw	v0,16(s8)
80010518:	8fc20010 	lw	v0,16(s8)
8001051c:	04410004 	bgez	v0,80010530 <readline+0x68>
80010520:	00000000 	nop
80010524:	00001021 	move	v0,zero
80010528:	08004188 	j	80010620 <readline+0x158>
8001052c:	00000000 	nop
80010530:	8fc20010 	lw	v0,16(s8)
80010534:	28420020 	slti	v0,v0,32
80010538:	14400014 	bnez	v0,8001058c <readline+0xc4>
8001053c:	00000000 	nop
80010540:	8fc20014 	lw	v0,20(s8)
80010544:	284203ff 	slti	v0,v0,1023
80010548:	10400010 	beqz	v0,8001058c <readline+0xc4>
8001054c:	00000000 	nop
80010550:	8fc40010 	lw	a0,16(s8)
80010554:	0c0040ee 	jal	800103b8 <cputchar>
80010558:	00000000 	nop
8001055c:	8fc40014 	lw	a0,20(s8)
80010560:	8fc20010 	lw	v0,16(s8)
80010564:	304300ff 	andi	v1,v0,0xff
80010568:	3c028002 	lui	v0,0x8002
8001056c:	2442502c 	addiu	v0,v0,20524
80010570:	00821021 	addu	v0,a0,v0
80010574:	a0430000 	sb	v1,0(v0)
80010578:	8fc20014 	lw	v0,20(s8)
8001057c:	24420001 	addiu	v0,v0,1
80010580:	afc20014 	sw	v0,20(s8)
80010584:	08004186 	j	80010618 <readline+0x150>
80010588:	00000000 	nop
8001058c:	8fc30010 	lw	v1,16(s8)
80010590:	24020008 	li	v0,8
80010594:	1462000c 	bne	v1,v0,800105c8 <readline+0x100>
80010598:	00000000 	nop
8001059c:	8fc20014 	lw	v0,20(s8)
800105a0:	18400009 	blez	v0,800105c8 <readline+0x100>
800105a4:	00000000 	nop
800105a8:	8fc40010 	lw	a0,16(s8)
800105ac:	0c0040ee 	jal	800103b8 <cputchar>
800105b0:	00000000 	nop
800105b4:	8fc20014 	lw	v0,20(s8)
800105b8:	2442ffff 	addiu	v0,v0,-1
800105bc:	afc20014 	sw	v0,20(s8)
800105c0:	08004186 	j	80010618 <readline+0x150>
800105c4:	00000000 	nop
800105c8:	8fc30010 	lw	v1,16(s8)
800105cc:	2402000a 	li	v0,10
800105d0:	10620005 	beq	v1,v0,800105e8 <readline+0x120>
800105d4:	00000000 	nop
800105d8:	8fc30010 	lw	v1,16(s8)
800105dc:	2402000d 	li	v0,13
800105e0:	1462ffc9 	bne	v1,v0,80010508 <readline+0x40>
800105e4:	00000000 	nop
800105e8:	8fc40010 	lw	a0,16(s8)
800105ec:	0c0040ee 	jal	800103b8 <cputchar>
800105f0:	00000000 	nop
800105f4:	8fc30014 	lw	v1,20(s8)
800105f8:	3c028002 	lui	v0,0x8002
800105fc:	2442502c 	addiu	v0,v0,20524
80010600:	00621021 	addu	v0,v1,v0
80010604:	a0400000 	sb	zero,0(v0)
80010608:	3c028002 	lui	v0,0x8002
8001060c:	2442502c 	addiu	v0,v0,20524
80010610:	08004188 	j	80010620 <readline+0x158>
80010614:	00000000 	nop
80010618:	08004143 	j	8001050c <readline+0x44>
8001061c:	00000000 	nop
80010620:	03c0e821 	move	sp,s8
80010624:	8fbf001c 	lw	ra,28(sp)
80010628:	8fbe0018 	lw	s8,24(sp)
8001062c:	27bd0020 	addiu	sp,sp,32
80010630:	03e00008 	jr	ra
80010634:	00000000 	nop

80010638 <__panic>:
80010638:	27bdffe0 	addiu	sp,sp,-32
8001063c:	afbf001c 	sw	ra,28(sp)
80010640:	afbe0018 	sw	s8,24(sp)
80010644:	03a0f021 	move	s8,sp
80010648:	afc40020 	sw	a0,32(s8)
8001064c:	afc50024 	sw	a1,36(s8)
80010650:	afc7002c 	sw	a3,44(s8)
80010654:	afc60028 	sw	a2,40(s8)
80010658:	3c028002 	lui	v0,0x8002
8001065c:	8c42542c 	lw	v0,21548(v0)
80010660:	14400017 	bnez	v0,800106c0 <__panic+0x88>
80010664:	00000000 	nop
80010668:	3c028002 	lui	v0,0x8002
8001066c:	24030001 	li	v1,1
80010670:	ac43542c 	sw	v1,21548(v0)
80010674:	27c2002c 	addiu	v0,s8,44
80010678:	afc20010 	sw	v0,16(s8)
8001067c:	3c028001 	lui	v0,0x8001
80010680:	244471ac 	addiu	a0,v0,29100
80010684:	8fc50020 	lw	a1,32(s8)
80010688:	8fc60024 	lw	a2,36(s8)
8001068c:	0c0040d7 	jal	8001035c <cprintf>
80010690:	00000000 	nop
80010694:	8fc20010 	lw	v0,16(s8)
80010698:	8fc40028 	lw	a0,40(s8)
8001069c:	00402821 	move	a1,v0
800106a0:	0c0040c0 	jal	80010300 <vcprintf>
800106a4:	00000000 	nop
800106a8:	3c028001 	lui	v0,0x8001
800106ac:	244471c8 	addiu	a0,v0,29128
800106b0:	0c0040d7 	jal	8001035c <cprintf>
800106b4:	00000000 	nop
800106b8:	080041b1 	j	800106c4 <__panic+0x8c>
800106bc:	00000000 	nop
800106c0:	00000000 	nop
800106c4:	0c0046cb 	jal	80011b2c <intr_disable>
800106c8:	00000000 	nop
800106cc:	00002021 	move	a0,zero
800106d0:	0c0044c0 	jal	80011300 <kmonitor>
800106d4:	00000000 	nop
800106d8:	080041b3 	j	800106cc <__panic+0x94>
800106dc:	00000000 	nop

800106e0 <__warn>:
800106e0:	27bdffe0 	addiu	sp,sp,-32
800106e4:	afbf001c 	sw	ra,28(sp)
800106e8:	afbe0018 	sw	s8,24(sp)
800106ec:	03a0f021 	move	s8,sp
800106f0:	afc40020 	sw	a0,32(s8)
800106f4:	afc50024 	sw	a1,36(s8)
800106f8:	afc7002c 	sw	a3,44(s8)
800106fc:	afc60028 	sw	a2,40(s8)
80010700:	27c2002c 	addiu	v0,s8,44
80010704:	afc20010 	sw	v0,16(s8)
80010708:	3c028001 	lui	v0,0x8001
8001070c:	244471cc 	addiu	a0,v0,29132
80010710:	8fc50020 	lw	a1,32(s8)
80010714:	8fc60024 	lw	a2,36(s8)
80010718:	0c0040d7 	jal	8001035c <cprintf>
8001071c:	00000000 	nop
80010720:	8fc20010 	lw	v0,16(s8)
80010724:	8fc40028 	lw	a0,40(s8)
80010728:	00402821 	move	a1,v0
8001072c:	0c0040c0 	jal	80010300 <vcprintf>
80010730:	00000000 	nop
80010734:	3c028001 	lui	v0,0x8001
80010738:	244471c8 	addiu	a0,v0,29128
8001073c:	0c0040d7 	jal	8001035c <cprintf>
80010740:	00000000 	nop
80010744:	03c0e821 	move	sp,s8
80010748:	8fbf001c 	lw	ra,28(sp)
8001074c:	8fbe0018 	lw	s8,24(sp)
80010750:	27bd0020 	addiu	sp,sp,32
80010754:	03e00008 	jr	ra
80010758:	00000000 	nop

8001075c <is_kernel_panic>:
8001075c:	27bdfff8 	addiu	sp,sp,-8
80010760:	afbe0004 	sw	s8,4(sp)
80010764:	03a0f021 	move	s8,sp
80010768:	3c028002 	lui	v0,0x8002
8001076c:	8c42542c 	lw	v0,21548(v0)
80010770:	03c0e821 	move	sp,s8
80010774:	8fbe0004 	lw	s8,4(sp)
80010778:	27bd0008 	addiu	sp,sp,8
8001077c:	03e00008 	jr	ra
80010780:	00000000 	nop

80010784 <stab_binsearch>:
80010784:	27bdffe0 	addiu	sp,sp,-32
80010788:	afbe001c 	sw	s8,28(sp)
8001078c:	03a0f021 	move	s8,sp
80010790:	afc40020 	sw	a0,32(s8)
80010794:	afc50024 	sw	a1,36(s8)
80010798:	afc60028 	sw	a2,40(s8)
8001079c:	afc7002c 	sw	a3,44(s8)
800107a0:	8fc20024 	lw	v0,36(s8)
800107a4:	8c420000 	lw	v0,0(v0)
800107a8:	afc20010 	sw	v0,16(s8)
800107ac:	8fc20028 	lw	v0,40(s8)
800107b0:	8c420000 	lw	v0,0(v0)
800107b4:	afc2000c 	sw	v0,12(s8)
800107b8:	afc00008 	sw	zero,8(s8)
800107bc:	0800424a 	j	80010928 <stab_binsearch+0x1a4>
800107c0:	00000000 	nop
800107c4:	8fc30010 	lw	v1,16(s8)
800107c8:	8fc2000c 	lw	v0,12(s8)
800107cc:	00621021 	addu	v0,v1,v0
800107d0:	00021fc2 	srl	v1,v0,0x1f
800107d4:	00621021 	addu	v0,v1,v0
800107d8:	00021043 	sra	v0,v0,0x1
800107dc:	afc20004 	sw	v0,4(s8)
800107e0:	8fc20004 	lw	v0,4(s8)
800107e4:	afc20000 	sw	v0,0(s8)
800107e8:	080041ff 	j	800107fc <stab_binsearch+0x78>
800107ec:	00000000 	nop
800107f0:	8fc20000 	lw	v0,0(s8)
800107f4:	2442ffff 	addiu	v0,v0,-1
800107f8:	afc20000 	sw	v0,0(s8)
800107fc:	8fc30000 	lw	v1,0(s8)
80010800:	8fc20010 	lw	v0,16(s8)
80010804:	0062102a 	slt	v0,v1,v0
80010808:	1440000c 	bnez	v0,8001083c <stab_binsearch+0xb8>
8001080c:	00000000 	nop
80010810:	8fc20000 	lw	v0,0(s8)
80010814:	00021080 	sll	v0,v0,0x2
80010818:	00021880 	sll	v1,v0,0x2
8001081c:	00621023 	subu	v0,v1,v0
80010820:	8fc30020 	lw	v1,32(s8)
80010824:	00621021 	addu	v0,v1,v0
80010828:	90420004 	lbu	v0,4(v0)
8001082c:	00401821 	move	v1,v0
80010830:	8fc2002c 	lw	v0,44(s8)
80010834:	1462ffee 	bne	v1,v0,800107f0 <stab_binsearch+0x6c>
80010838:	00000000 	nop
8001083c:	8fc30000 	lw	v1,0(s8)
80010840:	8fc20010 	lw	v0,16(s8)
80010844:	0062102a 	slt	v0,v1,v0
80010848:	10400006 	beqz	v0,80010864 <stab_binsearch+0xe0>
8001084c:	00000000 	nop
80010850:	8fc20004 	lw	v0,4(s8)
80010854:	24420001 	addiu	v0,v0,1
80010858:	afc20010 	sw	v0,16(s8)
8001085c:	0800424a 	j	80010928 <stab_binsearch+0x1a4>
80010860:	00000000 	nop
80010864:	24020001 	li	v0,1
80010868:	afc20008 	sw	v0,8(s8)
8001086c:	8fc20000 	lw	v0,0(s8)
80010870:	00021080 	sll	v0,v0,0x2
80010874:	00021880 	sll	v1,v0,0x2
80010878:	00621023 	subu	v0,v1,v0
8001087c:	8fc30020 	lw	v1,32(s8)
80010880:	00621021 	addu	v0,v1,v0
80010884:	8c430008 	lw	v1,8(v0)
80010888:	8fc20030 	lw	v0,48(s8)
8001088c:	0062102b 	sltu	v0,v1,v0
80010890:	10400009 	beqz	v0,800108b8 <stab_binsearch+0x134>
80010894:	00000000 	nop
80010898:	8fc20024 	lw	v0,36(s8)
8001089c:	8fc30000 	lw	v1,0(s8)
800108a0:	ac430000 	sw	v1,0(v0)
800108a4:	8fc20004 	lw	v0,4(s8)
800108a8:	24420001 	addiu	v0,v0,1
800108ac:	afc20010 	sw	v0,16(s8)
800108b0:	0800424a 	j	80010928 <stab_binsearch+0x1a4>
800108b4:	00000000 	nop
800108b8:	8fc20000 	lw	v0,0(s8)
800108bc:	00021080 	sll	v0,v0,0x2
800108c0:	00021880 	sll	v1,v0,0x2
800108c4:	00621023 	subu	v0,v1,v0
800108c8:	8fc30020 	lw	v1,32(s8)
800108cc:	00621021 	addu	v0,v1,v0
800108d0:	8c430008 	lw	v1,8(v0)
800108d4:	8fc20030 	lw	v0,48(s8)
800108d8:	0043102b 	sltu	v0,v0,v1
800108dc:	1040000a 	beqz	v0,80010908 <stab_binsearch+0x184>
800108e0:	00000000 	nop
800108e4:	8fc20000 	lw	v0,0(s8)
800108e8:	2443ffff 	addiu	v1,v0,-1
800108ec:	8fc20028 	lw	v0,40(s8)
800108f0:	ac430000 	sw	v1,0(v0)
800108f4:	8fc20000 	lw	v0,0(s8)
800108f8:	2442ffff 	addiu	v0,v0,-1
800108fc:	afc2000c 	sw	v0,12(s8)
80010900:	0800424a 	j	80010928 <stab_binsearch+0x1a4>
80010904:	00000000 	nop
80010908:	8fc20024 	lw	v0,36(s8)
8001090c:	8fc30000 	lw	v1,0(s8)
80010910:	ac430000 	sw	v1,0(v0)
80010914:	8fc20000 	lw	v0,0(s8)
80010918:	afc20010 	sw	v0,16(s8)
8001091c:	8fc20030 	lw	v0,48(s8)
80010920:	24420001 	addiu	v0,v0,1
80010924:	afc20030 	sw	v0,48(s8)
80010928:	8fc30010 	lw	v1,16(s8)
8001092c:	8fc2000c 	lw	v0,12(s8)
80010930:	0043102a 	slt	v0,v0,v1
80010934:	1040ffa3 	beqz	v0,800107c4 <stab_binsearch+0x40>
80010938:	00000000 	nop
8001093c:	8fc20008 	lw	v0,8(s8)
80010940:	14400008 	bnez	v0,80010964 <stab_binsearch+0x1e0>
80010944:	00000000 	nop
80010948:	8fc20024 	lw	v0,36(s8)
8001094c:	8c420000 	lw	v0,0(v0)
80010950:	2443ffff 	addiu	v1,v0,-1
80010954:	8fc20028 	lw	v0,40(s8)
80010958:	ac430000 	sw	v1,0(v0)
8001095c:	08004275 	j	800109d4 <stab_binsearch+0x250>
80010960:	00000000 	nop
80010964:	8fc20028 	lw	v0,40(s8)
80010968:	8c420000 	lw	v0,0(v0)
8001096c:	afc20010 	sw	v0,16(s8)
80010970:	08004261 	j	80010984 <stab_binsearch+0x200>
80010974:	00000000 	nop
80010978:	8fc20010 	lw	v0,16(s8)
8001097c:	2442ffff 	addiu	v0,v0,-1
80010980:	afc20010 	sw	v0,16(s8)
80010984:	8fc20024 	lw	v0,36(s8)
80010988:	8c430000 	lw	v1,0(v0)
8001098c:	8fc20010 	lw	v0,16(s8)
80010990:	0062102a 	slt	v0,v1,v0
80010994:	1040000c 	beqz	v0,800109c8 <stab_binsearch+0x244>
80010998:	00000000 	nop
8001099c:	8fc20010 	lw	v0,16(s8)
800109a0:	00021080 	sll	v0,v0,0x2
800109a4:	00021880 	sll	v1,v0,0x2
800109a8:	00621023 	subu	v0,v1,v0
800109ac:	8fc30020 	lw	v1,32(s8)
800109b0:	00621021 	addu	v0,v1,v0
800109b4:	90420004 	lbu	v0,4(v0)
800109b8:	00401821 	move	v1,v0
800109bc:	8fc2002c 	lw	v0,44(s8)
800109c0:	1462ffed 	bne	v1,v0,80010978 <stab_binsearch+0x1f4>
800109c4:	00000000 	nop
800109c8:	8fc20024 	lw	v0,36(s8)
800109cc:	8fc30010 	lw	v1,16(s8)
800109d0:	ac430000 	sw	v1,0(v0)
800109d4:	03c0e821 	move	sp,s8
800109d8:	8fbe001c 	lw	s8,28(sp)
800109dc:	27bd0020 	addiu	sp,sp,32
800109e0:	03e00008 	jr	ra
800109e4:	00000000 	nop

800109e8 <debuginfo_eip>:
800109e8:	27bdffb8 	addiu	sp,sp,-72
800109ec:	afbf0044 	sw	ra,68(sp)
800109f0:	afbe0040 	sw	s8,64(sp)
800109f4:	03a0f021 	move	s8,sp
800109f8:	afc40048 	sw	a0,72(s8)
800109fc:	afc5004c 	sw	a1,76(s8)
80010a00:	8fc2004c 	lw	v0,76(s8)
80010a04:	3c038001 	lui	v1,0x8001
80010a08:	246371ec 	addiu	v1,v1,29164
80010a0c:	ac430000 	sw	v1,0(v0)
80010a10:	8fc2004c 	lw	v0,76(s8)
80010a14:	ac400004 	sw	zero,4(v0)
80010a18:	8fc2004c 	lw	v0,76(s8)
80010a1c:	3c038001 	lui	v1,0x8001
80010a20:	246371ec 	addiu	v1,v1,29164
80010a24:	ac430008 	sw	v1,8(v0)
80010a28:	8fc2004c 	lw	v0,76(s8)
80010a2c:	24030009 	li	v1,9
80010a30:	ac43000c 	sw	v1,12(v0)
80010a34:	8fc2004c 	lw	v0,76(s8)
80010a38:	8fc30048 	lw	v1,72(s8)
80010a3c:	ac430010 	sw	v1,16(v0)
80010a40:	8fc2004c 	lw	v0,76(s8)
80010a44:	ac400014 	sw	zero,20(v0)
80010a48:	3c028002 	lui	v0,0x8002
80010a4c:	244282c0 	addiu	v0,v0,-32064
80010a50:	afc20024 	sw	v0,36(s8)
80010a54:	3c028002 	lui	v0,0x8002
80010a58:	24421bb4 	addiu	v0,v0,7092
80010a5c:	afc20020 	sw	v0,32(s8)
80010a60:	3c028002 	lui	v0,0x8002
80010a64:	24421bb5 	addiu	v0,v0,7093
80010a68:	afc2001c 	sw	v0,28(s8)
80010a6c:	3c028002 	lui	v0,0x8002
80010a70:	2442411c 	addiu	v0,v0,16668
80010a74:	afc20018 	sw	v0,24(s8)
80010a78:	8fc30018 	lw	v1,24(s8)
80010a7c:	8fc2001c 	lw	v0,28(s8)
80010a80:	0043102b 	sltu	v0,v0,v1
80010a84:	10400006 	beqz	v0,80010aa0 <debuginfo_eip+0xb8>
80010a88:	00000000 	nop
80010a8c:	8fc20018 	lw	v0,24(s8)
80010a90:	2442ffff 	addiu	v0,v0,-1
80010a94:	90420000 	lbu	v0,0(v0)
80010a98:	10400004 	beqz	v0,80010aac <debuginfo_eip+0xc4>
80010a9c:	00000000 	nop
80010aa0:	2402ffff 	li	v0,-1
80010aa4:	08004399 	j	80010e64 <debuginfo_eip+0x47c>
80010aa8:	00000000 	nop
80010aac:	afc00028 	sw	zero,40(s8)
80010ab0:	8fc30020 	lw	v1,32(s8)
80010ab4:	8fc20024 	lw	v0,36(s8)
80010ab8:	00621023 	subu	v0,v1,v0
80010abc:	00021883 	sra	v1,v0,0x2
80010ac0:	3c02aaaa 	lui	v0,0xaaaa
80010ac4:	3442aaab 	ori	v0,v0,0xaaab
80010ac8:	70621002 	mul	v0,v1,v0
80010acc:	2442ffff 	addiu	v0,v0,-1
80010ad0:	afc2002c 	sw	v0,44(s8)
80010ad4:	27c30028 	addiu	v1,s8,40
80010ad8:	27c2002c 	addiu	v0,s8,44
80010adc:	8fc40048 	lw	a0,72(s8)
80010ae0:	afa40010 	sw	a0,16(sp)
80010ae4:	8fc40024 	lw	a0,36(s8)
80010ae8:	00602821 	move	a1,v1
80010aec:	00403021 	move	a2,v0
80010af0:	24070064 	li	a3,100
80010af4:	0c0041e1 	jal	80010784 <stab_binsearch>
80010af8:	00000000 	nop
80010afc:	8fc20028 	lw	v0,40(s8)
80010b00:	14400004 	bnez	v0,80010b14 <debuginfo_eip+0x12c>
80010b04:	00000000 	nop
80010b08:	2402ffff 	li	v0,-1
80010b0c:	08004399 	j	80010e64 <debuginfo_eip+0x47c>
80010b10:	00000000 	nop
80010b14:	8fc20028 	lw	v0,40(s8)
80010b18:	afc20030 	sw	v0,48(s8)
80010b1c:	8fc2002c 	lw	v0,44(s8)
80010b20:	afc20034 	sw	v0,52(s8)
80010b24:	27c30030 	addiu	v1,s8,48
80010b28:	27c20034 	addiu	v0,s8,52
80010b2c:	8fc40048 	lw	a0,72(s8)
80010b30:	afa40010 	sw	a0,16(sp)
80010b34:	8fc40024 	lw	a0,36(s8)
80010b38:	00602821 	move	a1,v1
80010b3c:	00403021 	move	a2,v0
80010b40:	24070024 	li	a3,36
80010b44:	0c0041e1 	jal	80010784 <stab_binsearch>
80010b48:	00000000 	nop
80010b4c:	8fc30030 	lw	v1,48(s8)
80010b50:	8fc20034 	lw	v0,52(s8)
80010b54:	0043102a 	slt	v0,v0,v1
80010b58:	1440002d 	bnez	v0,80010c10 <debuginfo_eip+0x228>
80010b5c:	00000000 	nop
80010b60:	8fc20030 	lw	v0,48(s8)
80010b64:	00021080 	sll	v0,v0,0x2
80010b68:	00021880 	sll	v1,v0,0x2
80010b6c:	00621023 	subu	v0,v1,v0
80010b70:	8fc30024 	lw	v1,36(s8)
80010b74:	00621021 	addu	v0,v1,v0
80010b78:	8c430000 	lw	v1,0(v0)
80010b7c:	8fc40018 	lw	a0,24(s8)
80010b80:	8fc2001c 	lw	v0,28(s8)
80010b84:	00821023 	subu	v0,a0,v0
80010b88:	0062102b 	sltu	v0,v1,v0
80010b8c:	1040000c 	beqz	v0,80010bc0 <debuginfo_eip+0x1d8>
80010b90:	00000000 	nop
80010b94:	8fc20030 	lw	v0,48(s8)
80010b98:	00021080 	sll	v0,v0,0x2
80010b9c:	00021880 	sll	v1,v0,0x2
80010ba0:	00621023 	subu	v0,v1,v0
80010ba4:	8fc30024 	lw	v1,36(s8)
80010ba8:	00621021 	addu	v0,v1,v0
80010bac:	8c420000 	lw	v0,0(v0)
80010bb0:	8fc3001c 	lw	v1,28(s8)
80010bb4:	00621821 	addu	v1,v1,v0
80010bb8:	8fc2004c 	lw	v0,76(s8)
80010bbc:	ac430008 	sw	v1,8(v0)
80010bc0:	8fc20030 	lw	v0,48(s8)
80010bc4:	00021080 	sll	v0,v0,0x2
80010bc8:	00021880 	sll	v1,v0,0x2
80010bcc:	00621023 	subu	v0,v1,v0
80010bd0:	8fc30024 	lw	v1,36(s8)
80010bd4:	00621021 	addu	v0,v1,v0
80010bd8:	8c430008 	lw	v1,8(v0)
80010bdc:	8fc2004c 	lw	v0,76(s8)
80010be0:	ac430010 	sw	v1,16(v0)
80010be4:	8fc2004c 	lw	v0,76(s8)
80010be8:	8c420010 	lw	v0,16(v0)
80010bec:	8fc30048 	lw	v1,72(s8)
80010bf0:	00621023 	subu	v0,v1,v0
80010bf4:	afc20048 	sw	v0,72(s8)
80010bf8:	8fc20030 	lw	v0,48(s8)
80010bfc:	afc20038 	sw	v0,56(s8)
80010c00:	8fc20034 	lw	v0,52(s8)
80010c04:	afc2003c 	sw	v0,60(s8)
80010c08:	0800430b 	j	80010c2c <debuginfo_eip+0x244>
80010c0c:	00000000 	nop
80010c10:	8fc2004c 	lw	v0,76(s8)
80010c14:	8fc30048 	lw	v1,72(s8)
80010c18:	ac430010 	sw	v1,16(v0)
80010c1c:	8fc20028 	lw	v0,40(s8)
80010c20:	afc20038 	sw	v0,56(s8)
80010c24:	8fc2002c 	lw	v0,44(s8)
80010c28:	afc2003c 	sw	v0,60(s8)
80010c2c:	8fc2004c 	lw	v0,76(s8)
80010c30:	8c420008 	lw	v0,8(v0)
80010c34:	00402021 	move	a0,v0
80010c38:	2405003a 	li	a1,58
80010c3c:	0c00579d 	jal	80015e74 <strfind>
80010c40:	00000000 	nop
80010c44:	00401821 	move	v1,v0
80010c48:	8fc2004c 	lw	v0,76(s8)
80010c4c:	8c420008 	lw	v0,8(v0)
80010c50:	00621823 	subu	v1,v1,v0
80010c54:	8fc2004c 	lw	v0,76(s8)
80010c58:	ac43000c 	sw	v1,12(v0)
80010c5c:	27c30038 	addiu	v1,s8,56
80010c60:	27c2003c 	addiu	v0,s8,60
80010c64:	8fc40048 	lw	a0,72(s8)
80010c68:	afa40010 	sw	a0,16(sp)
80010c6c:	8fc40024 	lw	a0,36(s8)
80010c70:	00602821 	move	a1,v1
80010c74:	00403021 	move	a2,v0
80010c78:	24070044 	li	a3,68
80010c7c:	0c0041e1 	jal	80010784 <stab_binsearch>
80010c80:	00000000 	nop
80010c84:	8fc30038 	lw	v1,56(s8)
80010c88:	8fc2003c 	lw	v0,60(s8)
80010c8c:	0043102a 	slt	v0,v0,v1
80010c90:	1440000d 	bnez	v0,80010cc8 <debuginfo_eip+0x2e0>
80010c94:	00000000 	nop
80010c98:	8fc2003c 	lw	v0,60(s8)
80010c9c:	00021080 	sll	v0,v0,0x2
80010ca0:	00021880 	sll	v1,v0,0x2
80010ca4:	00621023 	subu	v0,v1,v0
80010ca8:	8fc30024 	lw	v1,36(s8)
80010cac:	00621021 	addu	v0,v1,v0
80010cb0:	94420006 	lhu	v0,6(v0)
80010cb4:	00401821 	move	v1,v0
80010cb8:	8fc2004c 	lw	v0,76(s8)
80010cbc:	ac430004 	sw	v1,4(v0)
80010cc0:	08004338 	j	80010ce0 <debuginfo_eip+0x2f8>
80010cc4:	00000000 	nop
80010cc8:	2402ffff 	li	v0,-1
80010ccc:	08004399 	j	80010e64 <debuginfo_eip+0x47c>
80010cd0:	00000000 	nop
80010cd4:	8fc20038 	lw	v0,56(s8)
80010cd8:	2442ffff 	addiu	v0,v0,-1
80010cdc:	afc20038 	sw	v0,56(s8)
80010ce0:	8fc30038 	lw	v1,56(s8)
80010ce4:	8fc20028 	lw	v0,40(s8)
80010ce8:	0062102a 	slt	v0,v1,v0
80010cec:	1440001e 	bnez	v0,80010d68 <debuginfo_eip+0x380>
80010cf0:	00000000 	nop
80010cf4:	8fc20038 	lw	v0,56(s8)
80010cf8:	00021080 	sll	v0,v0,0x2
80010cfc:	00021880 	sll	v1,v0,0x2
80010d00:	00621023 	subu	v0,v1,v0
80010d04:	8fc30024 	lw	v1,36(s8)
80010d08:	00621021 	addu	v0,v1,v0
80010d0c:	90430004 	lbu	v1,4(v0)
80010d10:	24020084 	li	v0,132
80010d14:	10620014 	beq	v1,v0,80010d68 <debuginfo_eip+0x380>
80010d18:	00000000 	nop
80010d1c:	8fc20038 	lw	v0,56(s8)
80010d20:	00021080 	sll	v0,v0,0x2
80010d24:	00021880 	sll	v1,v0,0x2
80010d28:	00621023 	subu	v0,v1,v0
80010d2c:	8fc30024 	lw	v1,36(s8)
80010d30:	00621021 	addu	v0,v1,v0
80010d34:	90430004 	lbu	v1,4(v0)
80010d38:	24020064 	li	v0,100
80010d3c:	1462ffe5 	bne	v1,v0,80010cd4 <debuginfo_eip+0x2ec>
80010d40:	00000000 	nop
80010d44:	8fc20038 	lw	v0,56(s8)
80010d48:	00021080 	sll	v0,v0,0x2
80010d4c:	00021880 	sll	v1,v0,0x2
80010d50:	00621023 	subu	v0,v1,v0
80010d54:	8fc30024 	lw	v1,36(s8)
80010d58:	00621021 	addu	v0,v1,v0
80010d5c:	8c420008 	lw	v0,8(v0)
80010d60:	1040ffdc 	beqz	v0,80010cd4 <debuginfo_eip+0x2ec>
80010d64:	00000000 	nop
80010d68:	8fc30038 	lw	v1,56(s8)
80010d6c:	8fc20028 	lw	v0,40(s8)
80010d70:	0062102a 	slt	v0,v1,v0
80010d74:	14400019 	bnez	v0,80010ddc <debuginfo_eip+0x3f4>
80010d78:	00000000 	nop
80010d7c:	8fc20038 	lw	v0,56(s8)
80010d80:	00021080 	sll	v0,v0,0x2
80010d84:	00021880 	sll	v1,v0,0x2
80010d88:	00621023 	subu	v0,v1,v0
80010d8c:	8fc30024 	lw	v1,36(s8)
80010d90:	00621021 	addu	v0,v1,v0
80010d94:	8c430000 	lw	v1,0(v0)
80010d98:	8fc40018 	lw	a0,24(s8)
80010d9c:	8fc2001c 	lw	v0,28(s8)
80010da0:	00821023 	subu	v0,a0,v0
80010da4:	0062102b 	sltu	v0,v1,v0
80010da8:	1040000c 	beqz	v0,80010ddc <debuginfo_eip+0x3f4>
80010dac:	00000000 	nop
80010db0:	8fc20038 	lw	v0,56(s8)
80010db4:	00021080 	sll	v0,v0,0x2
80010db8:	00021880 	sll	v1,v0,0x2
80010dbc:	00621023 	subu	v0,v1,v0
80010dc0:	8fc30024 	lw	v1,36(s8)
80010dc4:	00621021 	addu	v0,v1,v0
80010dc8:	8c420000 	lw	v0,0(v0)
80010dcc:	8fc3001c 	lw	v1,28(s8)
80010dd0:	00621821 	addu	v1,v1,v0
80010dd4:	8fc2004c 	lw	v0,76(s8)
80010dd8:	ac430000 	sw	v1,0(v0)
80010ddc:	8fc30030 	lw	v1,48(s8)
80010de0:	8fc20034 	lw	v0,52(s8)
80010de4:	0062102a 	slt	v0,v1,v0
80010de8:	1040001d 	beqz	v0,80010e60 <debuginfo_eip+0x478>
80010dec:	00000000 	nop
80010df0:	8fc20030 	lw	v0,48(s8)
80010df4:	24420001 	addiu	v0,v0,1
80010df8:	afc20038 	sw	v0,56(s8)
80010dfc:	08004389 	j	80010e24 <debuginfo_eip+0x43c>
80010e00:	00000000 	nop
80010e04:	8fc2004c 	lw	v0,76(s8)
80010e08:	8c420014 	lw	v0,20(v0)
80010e0c:	24430001 	addiu	v1,v0,1
80010e10:	8fc2004c 	lw	v0,76(s8)
80010e14:	ac430014 	sw	v1,20(v0)
80010e18:	8fc20038 	lw	v0,56(s8)
80010e1c:	24420001 	addiu	v0,v0,1
80010e20:	afc20038 	sw	v0,56(s8)
80010e24:	8fc30038 	lw	v1,56(s8)
80010e28:	8fc20034 	lw	v0,52(s8)
80010e2c:	0062102a 	slt	v0,v1,v0
80010e30:	1040000b 	beqz	v0,80010e60 <debuginfo_eip+0x478>
80010e34:	00000000 	nop
80010e38:	8fc20038 	lw	v0,56(s8)
80010e3c:	00021080 	sll	v0,v0,0x2
80010e40:	00021880 	sll	v1,v0,0x2
80010e44:	00621023 	subu	v0,v1,v0
80010e48:	8fc30024 	lw	v1,36(s8)
80010e4c:	00621021 	addu	v0,v1,v0
80010e50:	90430004 	lbu	v1,4(v0)
80010e54:	240200a0 	li	v0,160
80010e58:	1062ffea 	beq	v1,v0,80010e04 <debuginfo_eip+0x41c>
80010e5c:	00000000 	nop
80010e60:	00001021 	move	v0,zero
80010e64:	03c0e821 	move	sp,s8
80010e68:	8fbf0044 	lw	ra,68(sp)
80010e6c:	8fbe0040 	lw	s8,64(sp)
80010e70:	27bd0048 	addiu	sp,sp,72
80010e74:	03e00008 	jr	ra
80010e78:	00000000 	nop

80010e7c <print_kerninfo>:
80010e7c:	27bdffe8 	addiu	sp,sp,-24
80010e80:	afbf0014 	sw	ra,20(sp)
80010e84:	afbe0010 	sw	s8,16(sp)
80010e88:	03a0f021 	move	s8,sp
80010e8c:	3c028001 	lui	v0,0x8001
80010e90:	244471f8 	addiu	a0,v0,29176
80010e94:	0c0040d7 	jal	8001035c <cprintf>
80010e98:	00000000 	nop
80010e9c:	3c028001 	lui	v0,0x8001
80010ea0:	24447214 	addiu	a0,v0,29204
80010ea4:	3c028001 	lui	v0,0x8001
80010ea8:	24450018 	addiu	a1,v0,24
80010eac:	0c0040d7 	jal	8001035c <cprintf>
80010eb0:	00000000 	nop
80010eb4:	3c028001 	lui	v0,0x8001
80010eb8:	2444722c 	addiu	a0,v0,29228
80010ebc:	3c028001 	lui	v0,0x8001
80010ec0:	24457144 	addiu	a1,v0,28996
80010ec4:	0c0040d7 	jal	8001035c <cprintf>
80010ec8:	00000000 	nop
80010ecc:	3c028001 	lui	v0,0x8001
80010ed0:	24447244 	addiu	a0,v0,29252
80010ed4:	3c028002 	lui	v0,0x8002
80010ed8:	2445502c 	addiu	a1,v0,20524
80010edc:	0c0040d7 	jal	8001035c <cprintf>
80010ee0:	00000000 	nop
80010ee4:	3c028001 	lui	v0,0x8001
80010ee8:	2444725c 	addiu	a0,v0,29276
80010eec:	3c028002 	lui	v0,0x8002
80010ef0:	2445565c 	addiu	a1,v0,22108
80010ef4:	0c0040d7 	jal	8001035c <cprintf>
80010ef8:	00000000 	nop
80010efc:	3c028002 	lui	v0,0x8002
80010f00:	2442565c 	addiu	v0,v0,22108
80010f04:	244303ff 	addiu	v1,v0,1023
80010f08:	3c028001 	lui	v0,0x8001
80010f0c:	24420018 	addiu	v0,v0,24
80010f10:	00621023 	subu	v0,v1,v0
80010f14:	04410002 	bgez	v0,80010f20 <print_kerninfo+0xa4>
80010f18:	00000000 	nop
80010f1c:	244203ff 	addiu	v0,v0,1023
80010f20:	00021283 	sra	v0,v0,0xa
80010f24:	3c038001 	lui	v1,0x8001
80010f28:	24647274 	addiu	a0,v1,29300
80010f2c:	00402821 	move	a1,v0
80010f30:	0c0040d7 	jal	8001035c <cprintf>
80010f34:	00000000 	nop
80010f38:	03c0e821 	move	sp,s8
80010f3c:	8fbf0014 	lw	ra,20(sp)
80010f40:	8fbe0010 	lw	s8,16(sp)
80010f44:	27bd0018 	addiu	sp,sp,24
80010f48:	03e00008 	jr	ra
80010f4c:	00000000 	nop

80010f50 <print_debuginfo>:
80010f50:	27bdfec0 	addiu	sp,sp,-320
80010f54:	afbf013c 	sw	ra,316(sp)
80010f58:	afbe0138 	sw	s8,312(sp)
80010f5c:	03a0f021 	move	s8,sp
80010f60:	afc40140 	sw	a0,320(s8)
80010f64:	27c2001c 	addiu	v0,s8,28
80010f68:	8fc40140 	lw	a0,320(s8)
80010f6c:	00402821 	move	a1,v0
80010f70:	0c00427a 	jal	800109e8 <debuginfo_eip>
80010f74:	00000000 	nop
80010f78:	10400008 	beqz	v0,80010f9c <print_debuginfo+0x4c>
80010f7c:	00000000 	nop
80010f80:	3c028001 	lui	v0,0x8001
80010f84:	244472a0 	addiu	a0,v0,29344
80010f88:	8fc50140 	lw	a1,320(s8)
80010f8c:	0c0040d7 	jal	8001035c <cprintf>
80010f90:	00000000 	nop
80010f94:	0800440b 	j	8001102c <print_debuginfo+0xdc>
80010f98:	00000000 	nop
80010f9c:	afc00018 	sw	zero,24(s8)
80010fa0:	080043f5 	j	80010fd4 <print_debuginfo+0x84>
80010fa4:	00000000 	nop
80010fa8:	8fc20018 	lw	v0,24(s8)
80010fac:	8fc40024 	lw	a0,36(s8)
80010fb0:	8fc30018 	lw	v1,24(s8)
80010fb4:	00831821 	addu	v1,a0,v1
80010fb8:	90630000 	lbu	v1,0(v1)
80010fbc:	27c40018 	addiu	a0,s8,24
80010fc0:	00821021 	addu	v0,a0,v0
80010fc4:	a043001c 	sb	v1,28(v0)
80010fc8:	8fc20018 	lw	v0,24(s8)
80010fcc:	24420001 	addiu	v0,v0,1
80010fd0:	afc20018 	sw	v0,24(s8)
80010fd4:	8fc30028 	lw	v1,40(s8)
80010fd8:	8fc20018 	lw	v0,24(s8)
80010fdc:	0043102a 	slt	v0,v0,v1
80010fe0:	1440fff1 	bnez	v0,80010fa8 <print_debuginfo+0x58>
80010fe4:	00000000 	nop
80010fe8:	8fc20018 	lw	v0,24(s8)
80010fec:	27c30018 	addiu	v1,s8,24
80010ff0:	00621021 	addu	v0,v1,v0
80010ff4:	a040001c 	sb	zero,28(v0)
80010ff8:	8fc5001c 	lw	a1,28(s8)
80010ffc:	8fc30020 	lw	v1,32(s8)
80011000:	8fc2002c 	lw	v0,44(s8)
80011004:	8fc40140 	lw	a0,320(s8)
80011008:	00822023 	subu	a0,a0,v0
8001100c:	27c20034 	addiu	v0,s8,52
80011010:	afa40010 	sw	a0,16(sp)
80011014:	3c048001 	lui	a0,0x8001
80011018:	248472bc 	addiu	a0,a0,29372
8001101c:	00603021 	move	a2,v1
80011020:	00403821 	move	a3,v0
80011024:	0c0040d7 	jal	8001035c <cprintf>
80011028:	00000000 	nop
8001102c:	03c0e821 	move	sp,s8
80011030:	8fbf013c 	lw	ra,316(sp)
80011034:	8fbe0138 	lw	s8,312(sp)
80011038:	27bd0140 	addiu	sp,sp,320
8001103c:	03e00008 	jr	ra
80011040:	00000000 	nop

80011044 <read_eip>:
80011044:	27bdfff0 	addiu	sp,sp,-16
80011048:	afbe000c 	sw	s8,12(sp)
8001104c:	03a0f021 	move	s8,sp
80011050:	03e01021 	move	v0,ra
80011054:	afc20000 	sw	v0,0(s8)
80011058:	8fc20000 	lw	v0,0(s8)
8001105c:	03c0e821 	move	sp,s8
80011060:	8fbe000c 	lw	s8,12(sp)
80011064:	03e00008 	jr	ra
80011068:	27bd0010 	addiu	sp,sp,16

8001106c <print_stackframe>:
8001106c:	27bdffe8 	addiu	sp,sp,-24
80011070:	afbf0014 	sw	ra,20(sp)
80011074:	afbe0010 	sw	s8,16(sp)
80011078:	03a0f021 	move	s8,sp
8001107c:	3c028001 	lui	v0,0x8001
80011080:	244472d0 	addiu	a0,v0,29392
80011084:	0c0040d7 	jal	8001035c <cprintf>
80011088:	00000000 	nop
8001108c:	03c0e821 	move	sp,s8
80011090:	8fbf0014 	lw	ra,20(sp)
80011094:	8fbe0010 	lw	s8,16(sp)
80011098:	27bd0018 	addiu	sp,sp,24
8001109c:	03e00008 	jr	ra
800110a0:	00000000 	nop

800110a4 <parse>:
800110a4:	27bdffe0 	addiu	sp,sp,-32
800110a8:	afbf001c 	sw	ra,28(sp)
800110ac:	afbe0018 	sw	s8,24(sp)
800110b0:	03a0f021 	move	s8,sp
800110b4:	afc40020 	sw	a0,32(s8)
800110b8:	afc50024 	sw	a1,36(s8)
800110bc:	afc00010 	sw	zero,16(s8)
800110c0:	08004437 	j	800110dc <parse+0x38>
800110c4:	00000000 	nop
800110c8:	8fc20020 	lw	v0,32(s8)
800110cc:	a0400000 	sb	zero,0(v0)
800110d0:	8fc20020 	lw	v0,32(s8)
800110d4:	24420001 	addiu	v0,v0,1
800110d8:	afc20020 	sw	v0,32(s8)
800110dc:	8fc20020 	lw	v0,32(s8)
800110e0:	90420000 	lbu	v0,0(v0)
800110e4:	1040000a 	beqz	v0,80011110 <parse+0x6c>
800110e8:	00000000 	nop
800110ec:	8fc20020 	lw	v0,32(s8)
800110f0:	90420000 	lbu	v0,0(v0)
800110f4:	3c038001 	lui	v1,0x8001
800110f8:	24647370 	addiu	a0,v1,29552
800110fc:	00402821 	move	a1,v0
80011100:	0c005780 	jal	80015e00 <strchr>
80011104:	00000000 	nop
80011108:	1440ffef 	bnez	v0,800110c8 <parse+0x24>
8001110c:	00000000 	nop
80011110:	8fc20020 	lw	v0,32(s8)
80011114:	90420000 	lbu	v0,0(v0)
80011118:	14400008 	bnez	v0,8001113c <parse+0x98>
8001111c:	00000000 	nop
80011120:	8fc20010 	lw	v0,16(s8)
80011124:	03c0e821 	move	sp,s8
80011128:	8fbf001c 	lw	ra,28(sp)
8001112c:	8fbe0018 	lw	s8,24(sp)
80011130:	27bd0020 	addiu	sp,sp,32
80011134:	03e00008 	jr	ra
80011138:	00000000 	nop
8001113c:	8fc30010 	lw	v1,16(s8)
80011140:	2402000f 	li	v0,15
80011144:	14620006 	bne	v1,v0,80011160 <parse+0xbc>
80011148:	00000000 	nop
8001114c:	3c028001 	lui	v0,0x8001
80011150:	24447378 	addiu	a0,v0,29560
80011154:	24050010 	li	a1,16
80011158:	0c0040d7 	jal	8001035c <cprintf>
8001115c:	00000000 	nop
80011160:	8fc20010 	lw	v0,16(s8)
80011164:	00021080 	sll	v0,v0,0x2
80011168:	8fc30024 	lw	v1,36(s8)
8001116c:	00621021 	addu	v0,v1,v0
80011170:	8fc30020 	lw	v1,32(s8)
80011174:	ac430000 	sw	v1,0(v0)
80011178:	8fc20010 	lw	v0,16(s8)
8001117c:	24420001 	addiu	v0,v0,1
80011180:	afc20010 	sw	v0,16(s8)
80011184:	08004466 	j	80011198 <parse+0xf4>
80011188:	00000000 	nop
8001118c:	8fc20020 	lw	v0,32(s8)
80011190:	24420001 	addiu	v0,v0,1
80011194:	afc20020 	sw	v0,32(s8)
80011198:	8fc20020 	lw	v0,32(s8)
8001119c:	90420000 	lbu	v0,0(v0)
800111a0:	1040000a 	beqz	v0,800111cc <parse+0x128>
800111a4:	00000000 	nop
800111a8:	8fc20020 	lw	v0,32(s8)
800111ac:	90420000 	lbu	v0,0(v0)
800111b0:	3c038001 	lui	v1,0x8001
800111b4:	24647370 	addiu	a0,v1,29552
800111b8:	00402821 	move	a1,v0
800111bc:	0c005780 	jal	80015e00 <strchr>
800111c0:	00000000 	nop
800111c4:	1040fff1 	beqz	v0,8001118c <parse+0xe8>
800111c8:	00000000 	nop
800111cc:	00000000 	nop
800111d0:	08004437 	j	800110dc <parse+0x38>
800111d4:	00000000 	nop

800111d8 <runcmd>:
800111d8:	27bdffa0 	addiu	sp,sp,-96
800111dc:	afbf005c 	sw	ra,92(sp)
800111e0:	afbe0058 	sw	s8,88(sp)
800111e4:	03a0f021 	move	s8,sp
800111e8:	afc40060 	sw	a0,96(s8)
800111ec:	afc50064 	sw	a1,100(s8)
800111f0:	27c20018 	addiu	v0,s8,24
800111f4:	8fc40060 	lw	a0,96(s8)
800111f8:	00402821 	move	a1,v0
800111fc:	0c004429 	jal	800110a4 <parse>
80011200:	00000000 	nop
80011204:	afc20014 	sw	v0,20(s8)
80011208:	8fc20014 	lw	v0,20(s8)
8001120c:	14400004 	bnez	v0,80011220 <runcmd+0x48>
80011210:	00000000 	nop
80011214:	00001021 	move	v0,zero
80011218:	080044ba 	j	800112e8 <runcmd+0x110>
8001121c:	00000000 	nop
80011220:	afc00010 	sw	zero,16(s8)
80011224:	080044af 	j	800112bc <runcmd+0xe4>
80011228:	00000000 	nop
8001122c:	8fc20010 	lw	v0,16(s8)
80011230:	3c048002 	lui	a0,0x8002
80011234:	00021080 	sll	v0,v0,0x2
80011238:	00021880 	sll	v1,v0,0x2
8001123c:	00621823 	subu	v1,v1,v0
80011240:	24825000 	addiu	v0,a0,20480
80011244:	00621021 	addu	v0,v1,v0
80011248:	8c430000 	lw	v1,0(v0)
8001124c:	8fc20018 	lw	v0,24(s8)
80011250:	00602021 	move	a0,v1
80011254:	00402821 	move	a1,v0
80011258:	0c00572f 	jal	80015cbc <strcmp>
8001125c:	00000000 	nop
80011260:	14400013 	bnez	v0,800112b0 <runcmd+0xd8>
80011264:	00000000 	nop
80011268:	8fc20010 	lw	v0,16(s8)
8001126c:	3c048002 	lui	a0,0x8002
80011270:	00021080 	sll	v0,v0,0x2
80011274:	00021880 	sll	v1,v0,0x2
80011278:	00621823 	subu	v1,v1,v0
8001127c:	24825000 	addiu	v0,a0,20480
80011280:	00621021 	addu	v0,v1,v0
80011284:	8c420008 	lw	v0,8(v0)
80011288:	8fc30014 	lw	v1,20(s8)
8001128c:	2464ffff 	addiu	a0,v1,-1
80011290:	27c30018 	addiu	v1,s8,24
80011294:	24630004 	addiu	v1,v1,4
80011298:	00602821 	move	a1,v1
8001129c:	8fc60064 	lw	a2,100(s8)
800112a0:	0040f809 	jalr	v0
800112a4:	00000000 	nop
800112a8:	080044ba 	j	800112e8 <runcmd+0x110>
800112ac:	00000000 	nop
800112b0:	8fc20010 	lw	v0,16(s8)
800112b4:	24420001 	addiu	v0,v0,1
800112b8:	afc20010 	sw	v0,16(s8)
800112bc:	8fc20010 	lw	v0,16(s8)
800112c0:	2c420003 	sltiu	v0,v0,3
800112c4:	1440ffd9 	bnez	v0,8001122c <runcmd+0x54>
800112c8:	00000000 	nop
800112cc:	8fc20018 	lw	v0,24(s8)
800112d0:	3c038001 	lui	v1,0x8001
800112d4:	24647398 	addiu	a0,v1,29592
800112d8:	00402821 	move	a1,v0
800112dc:	0c0040d7 	jal	8001035c <cprintf>
800112e0:	00000000 	nop
800112e4:	00001021 	move	v0,zero
800112e8:	03c0e821 	move	sp,s8
800112ec:	8fbf005c 	lw	ra,92(sp)
800112f0:	8fbe0058 	lw	s8,88(sp)
800112f4:	27bd0060 	addiu	sp,sp,96
800112f8:	03e00008 	jr	ra
800112fc:	00000000 	nop

80011300 <kmonitor>:
80011300:	27bdffe0 	addiu	sp,sp,-32
80011304:	afbf001c 	sw	ra,28(sp)
80011308:	afbe0018 	sw	s8,24(sp)
8001130c:	03a0f021 	move	s8,sp
80011310:	afc40020 	sw	a0,32(s8)
80011314:	3c028001 	lui	v0,0x8001
80011318:	244473b0 	addiu	a0,v0,29616
8001131c:	0c0040d7 	jal	8001035c <cprintf>
80011320:	00000000 	nop
80011324:	3c028001 	lui	v0,0x8001
80011328:	244473d8 	addiu	a0,v0,29656
8001132c:	0c0040d7 	jal	8001035c <cprintf>
80011330:	00000000 	nop
80011334:	8fc20020 	lw	v0,32(s8)
80011338:	1040000a 	beqz	v0,80011364 <kmonitor+0x64>
8001133c:	00000000 	nop
80011340:	8fc40020 	lw	a0,32(s8)
80011344:	0c00471f 	jal	80011c7c <print_trapframe>
80011348:	00000000 	nop
8001134c:	080044d9 	j	80011364 <kmonitor+0x64>
80011350:	00000000 	nop
80011354:	00000000 	nop
80011358:	080044d9 	j	80011364 <kmonitor+0x64>
8001135c:	00000000 	nop
80011360:	00000000 	nop
80011364:	3c028001 	lui	v0,0x8001
80011368:	24447400 	addiu	a0,v0,29696
8001136c:	0c004132 	jal	800104c8 <readline>
80011370:	00000000 	nop
80011374:	afc20010 	sw	v0,16(s8)
80011378:	8fc20010 	lw	v0,16(s8)
8001137c:	1040fff5 	beqz	v0,80011354 <kmonitor+0x54>
80011380:	00000000 	nop
80011384:	8fc40010 	lw	a0,16(s8)
80011388:	8fc50020 	lw	a1,32(s8)
8001138c:	0c004476 	jal	800111d8 <runcmd>
80011390:	00000000 	nop
80011394:	0441fff2 	bgez	v0,80011360 <kmonitor+0x60>
80011398:	00000000 	nop
8001139c:	00000000 	nop
800113a0:	03c0e821 	move	sp,s8
800113a4:	8fbf001c 	lw	ra,28(sp)
800113a8:	8fbe0018 	lw	s8,24(sp)
800113ac:	27bd0020 	addiu	sp,sp,32
800113b0:	03e00008 	jr	ra
800113b4:	00000000 	nop

800113b8 <mon_help>:
800113b8:	27bdffe0 	addiu	sp,sp,-32
800113bc:	afbf001c 	sw	ra,28(sp)
800113c0:	afbe0018 	sw	s8,24(sp)
800113c4:	03a0f021 	move	s8,sp
800113c8:	afc40020 	sw	a0,32(s8)
800113cc:	afc50024 	sw	a1,36(s8)
800113d0:	afc60028 	sw	a2,40(s8)
800113d4:	afc00010 	sw	zero,16(s8)
800113d8:	08004511 	j	80011444 <mon_help+0x8c>
800113dc:	00000000 	nop
800113e0:	8fc20010 	lw	v0,16(s8)
800113e4:	3c048002 	lui	a0,0x8002
800113e8:	00021080 	sll	v0,v0,0x2
800113ec:	00021880 	sll	v1,v0,0x2
800113f0:	00621823 	subu	v1,v1,v0
800113f4:	24825000 	addiu	v0,a0,20480
800113f8:	00621021 	addu	v0,v1,v0
800113fc:	8c430000 	lw	v1,0(v0)
80011400:	8fc20010 	lw	v0,16(s8)
80011404:	3c048002 	lui	a0,0x8002
80011408:	24845000 	addiu	a0,a0,20480
8001140c:	00021080 	sll	v0,v0,0x2
80011410:	00022880 	sll	a1,v0,0x2
80011414:	00a21023 	subu	v0,a1,v0
80011418:	00821021 	addu	v0,a0,v0
8001141c:	8c420004 	lw	v0,4(v0)
80011420:	3c048001 	lui	a0,0x8001
80011424:	24847404 	addiu	a0,a0,29700
80011428:	00602821 	move	a1,v1
8001142c:	00403021 	move	a2,v0
80011430:	0c0040d7 	jal	8001035c <cprintf>
80011434:	00000000 	nop
80011438:	8fc20010 	lw	v0,16(s8)
8001143c:	24420001 	addiu	v0,v0,1
80011440:	afc20010 	sw	v0,16(s8)
80011444:	8fc20010 	lw	v0,16(s8)
80011448:	2c420003 	sltiu	v0,v0,3
8001144c:	1440ffe4 	bnez	v0,800113e0 <mon_help+0x28>
80011450:	00000000 	nop
80011454:	00001021 	move	v0,zero
80011458:	03c0e821 	move	sp,s8
8001145c:	8fbf001c 	lw	ra,28(sp)
80011460:	8fbe0018 	lw	s8,24(sp)
80011464:	27bd0020 	addiu	sp,sp,32
80011468:	03e00008 	jr	ra
8001146c:	00000000 	nop

80011470 <mon_kerninfo>:
80011470:	27bdffe8 	addiu	sp,sp,-24
80011474:	afbf0014 	sw	ra,20(sp)
80011478:	afbe0010 	sw	s8,16(sp)
8001147c:	03a0f021 	move	s8,sp
80011480:	afc40018 	sw	a0,24(s8)
80011484:	afc5001c 	sw	a1,28(s8)
80011488:	afc60020 	sw	a2,32(s8)
8001148c:	0c00439f 	jal	80010e7c <print_kerninfo>
80011490:	00000000 	nop
80011494:	00001021 	move	v0,zero
80011498:	03c0e821 	move	sp,s8
8001149c:	8fbf0014 	lw	ra,20(sp)
800114a0:	8fbe0010 	lw	s8,16(sp)
800114a4:	27bd0018 	addiu	sp,sp,24
800114a8:	03e00008 	jr	ra
800114ac:	00000000 	nop

800114b0 <mon_backtrace>:
800114b0:	27bdffe8 	addiu	sp,sp,-24
800114b4:	afbf0014 	sw	ra,20(sp)
800114b8:	afbe0010 	sw	s8,16(sp)
800114bc:	03a0f021 	move	s8,sp
800114c0:	afc40018 	sw	a0,24(s8)
800114c4:	afc5001c 	sw	a1,28(s8)
800114c8:	afc60020 	sw	a2,32(s8)
800114cc:	0c00441b 	jal	8001106c <print_stackframe>
800114d0:	00000000 	nop
800114d4:	00001021 	move	v0,zero
800114d8:	03c0e821 	move	sp,s8
800114dc:	8fbf0014 	lw	ra,20(sp)
800114e0:	8fbe0010 	lw	s8,16(sp)
800114e4:	27bd0018 	addiu	sp,sp,24
800114e8:	03e00008 	jr	ra
800114ec:	00000000 	nop

800114f0 <clock_init>:
800114f0:	27bdffe8 	addiu	sp,sp,-24
800114f4:	afbf0014 	sw	ra,20(sp)
800114f8:	afbe0010 	sw	s8,16(sp)
800114fc:	03a0f021 	move	s8,sp
80011500:	3c028001 	lui	v0,0x8001
80011504:	24447410 	addiu	a0,v0,29712
80011508:	0c0040d7 	jal	8001035c <cprintf>
8001150c:	00000000 	nop
80011510:	0c004555 	jal	80011554 <clock_intr>
80011514:	00000000 	nop
80011518:	3c028002 	lui	v0,0x8002
8001151c:	ac40565c 	sw	zero,22108(v0)
80011520:	3c028001 	lui	v0,0x8001
80011524:	24447424 	addiu	a0,v0,29732
80011528:	0c0040d7 	jal	8001035c <cprintf>
8001152c:	00000000 	nop
80011530:	24040007 	li	a0,7
80011534:	0c00468c 	jal	80011a30 <pic_enable>
80011538:	00000000 	nop
8001153c:	03c0e821 	move	sp,s8
80011540:	8fbf0014 	lw	ra,20(sp)
80011544:	8fbe0010 	lw	s8,16(sp)
80011548:	27bd0018 	addiu	sp,sp,24
8001154c:	03e00008 	jr	ra
80011550:	00000000 	nop

80011554 <clock_intr>:
80011554:	27bdfff0 	addiu	sp,sp,-16
80011558:	afbe000c 	sw	s8,12(sp)
8001155c:	03a0f021 	move	s8,sp
80011560:	40024800 	mfc0	v0,c0_count
80011564:	afc20000 	sw	v0,0(s8)
80011568:	8fc20000 	lw	v0,0(s8)
8001156c:	afc20004 	sw	v0,4(s8)
80011570:	8fc30004 	lw	v1,4(s8)
80011574:	3c020010 	lui	v0,0x10
80011578:	00621021 	addu	v0,v1,v0
8001157c:	40825800 	mtc0	v0,c0_compare
80011580:	03c0e821 	move	sp,s8
80011584:	8fbe000c 	lw	s8,12(sp)
80011588:	03e00008 	jr	ra
8001158c:	27bd0010 	addiu	sp,sp,16

80011590 <__intr_save>:
80011590:	27bdffe0 	addiu	sp,sp,-32
80011594:	afbf001c 	sw	ra,28(sp)
80011598:	afbe0018 	sw	s8,24(sp)
8001159c:	03a0f021 	move	s8,sp
800115a0:	40026000 	mfc0	v0,c0_status
800115a4:	afc20010 	sw	v0,16(s8)
800115a8:	8fc20010 	lw	v0,16(s8)
800115ac:	30420001 	andi	v0,v0,0x1
800115b0:	304200ff 	andi	v0,v0,0xff
800115b4:	10400005 	beqz	v0,800115cc <__intr_save+0x3c>
800115b8:	00000000 	nop
800115bc:	0c0046cb 	jal	80011b2c <intr_disable>
800115c0:	00000000 	nop
800115c4:	08004574 	j	800115d0 <__intr_save+0x40>
800115c8:	24020001 	li	v0,1
800115cc:	00001021 	move	v0,zero
800115d0:	03c0e821 	move	sp,s8
800115d4:	8fbf001c 	lw	ra,28(sp)
800115d8:	8fbe0018 	lw	s8,24(sp)
800115dc:	03e00008 	jr	ra
800115e0:	27bd0020 	addiu	sp,sp,32

800115e4 <__intr_restore>:
800115e4:	27bdffe8 	addiu	sp,sp,-24
800115e8:	afbf0014 	sw	ra,20(sp)
800115ec:	afbe0010 	sw	s8,16(sp)
800115f0:	03a0f021 	move	s8,sp
800115f4:	afc40018 	sw	a0,24(s8)
800115f8:	8fc20018 	lw	v0,24(s8)
800115fc:	10400003 	beqz	v0,8001160c <__intr_restore+0x28>
80011600:	00000000 	nop
80011604:	0c0046bd 	jal	80011af4 <intr_enable>
80011608:	00000000 	nop
8001160c:	03c0e821 	move	sp,s8
80011610:	8fbf0014 	lw	ra,20(sp)
80011614:	8fbe0010 	lw	s8,16(sp)
80011618:	27bd0018 	addiu	sp,sp,24
8001161c:	03e00008 	jr	ra
80011620:	00000000 	nop

80011624 <serial_init>:
80011624:	27bdfff8 	addiu	sp,sp,-8
80011628:	afbe0004 	sw	s8,4(sp)
8001162c:	03a0f021 	move	s8,sp
80011630:	3c028002 	lui	v0,0x8002
80011634:	24030001 	li	v1,1
80011638:	ac435430 	sw	v1,21552(v0)
8001163c:	03c0e821 	move	sp,s8
80011640:	8fbe0004 	lw	s8,4(sp)
80011644:	27bd0008 	addiu	sp,sp,8
80011648:	03e00008 	jr	ra
8001164c:	00000000 	nop

80011650 <serial_putc_sub>:
80011650:	27bdfff8 	addiu	sp,sp,-8
80011654:	afbe0004 	sw	s8,4(sp)
80011658:	03a0f021 	move	s8,sp
8001165c:	afc40008 	sw	a0,8(s8)
80011660:	3c02bfd0 	lui	v0,0xbfd0
80011664:	344203fc 	ori	v0,v0,0x3fc
80011668:	8c420000 	lw	v0,0(v0)
8001166c:	30420001 	andi	v0,v0,0x1
80011670:	1040fffb 	beqz	v0,80011660 <serial_putc_sub+0x10>
80011674:	00000000 	nop
80011678:	3c02bfd0 	lui	v0,0xbfd0
8001167c:	344203f8 	ori	v0,v0,0x3f8
80011680:	8fc30008 	lw	v1,8(s8)
80011684:	ac430000 	sw	v1,0(v0)
80011688:	03c0e821 	move	sp,s8
8001168c:	8fbe0004 	lw	s8,4(sp)
80011690:	27bd0008 	addiu	sp,sp,8
80011694:	03e00008 	jr	ra
80011698:	00000000 	nop

8001169c <serial_putc>:
8001169c:	27bdffe8 	addiu	sp,sp,-24
800116a0:	afbf0014 	sw	ra,20(sp)
800116a4:	afbe0010 	sw	s8,16(sp)
800116a8:	03a0f021 	move	s8,sp
800116ac:	afc40018 	sw	a0,24(s8)
800116b0:	8fc30018 	lw	v1,24(s8)
800116b4:	24020008 	li	v0,8
800116b8:	10620006 	beq	v1,v0,800116d4 <serial_putc+0x38>
800116bc:	00000000 	nop
800116c0:	8fc40018 	lw	a0,24(s8)
800116c4:	0c004594 	jal	80011650 <serial_putc_sub>
800116c8:	00000000 	nop
800116cc:	080045be 	j	800116f8 <serial_putc+0x5c>
800116d0:	00000000 	nop
800116d4:	24040008 	li	a0,8
800116d8:	0c004594 	jal	80011650 <serial_putc_sub>
800116dc:	00000000 	nop
800116e0:	24040020 	li	a0,32
800116e4:	0c004594 	jal	80011650 <serial_putc_sub>
800116e8:	00000000 	nop
800116ec:	24040008 	li	a0,8
800116f0:	0c004594 	jal	80011650 <serial_putc_sub>
800116f4:	00000000 	nop
800116f8:	03c0e821 	move	sp,s8
800116fc:	8fbf0014 	lw	ra,20(sp)
80011700:	8fbe0010 	lw	s8,16(sp)
80011704:	27bd0018 	addiu	sp,sp,24
80011708:	03e00008 	jr	ra
8001170c:	00000000 	nop

80011710 <cons_intr>:
80011710:	27bdffe0 	addiu	sp,sp,-32
80011714:	afbf001c 	sw	ra,28(sp)
80011718:	afbe0018 	sw	s8,24(sp)
8001171c:	03a0f021 	move	s8,sp
80011720:	afc40020 	sw	a0,32(s8)
80011724:	080045e4 	j	80011790 <cons_intr+0x80>
80011728:	00000000 	nop
8001172c:	8fc20010 	lw	v0,16(s8)
80011730:	10400017 	beqz	v0,80011790 <cons_intr+0x80>
80011734:	00000000 	nop
80011738:	3c028002 	lui	v0,0x8002
8001173c:	24425434 	addiu	v0,v0,21556
80011740:	8c420204 	lw	v0,516(v0)
80011744:	8fc30010 	lw	v1,16(s8)
80011748:	306400ff 	andi	a0,v1,0xff
8001174c:	3c038002 	lui	v1,0x8002
80011750:	24635434 	addiu	v1,v1,21556
80011754:	00431821 	addu	v1,v0,v1
80011758:	a0640000 	sb	a0,0(v1)
8001175c:	24430001 	addiu	v1,v0,1
80011760:	3c028002 	lui	v0,0x8002
80011764:	24425434 	addiu	v0,v0,21556
80011768:	ac430204 	sw	v1,516(v0)
8001176c:	3c028002 	lui	v0,0x8002
80011770:	24425434 	addiu	v0,v0,21556
80011774:	8c430204 	lw	v1,516(v0)
80011778:	24020200 	li	v0,512
8001177c:	14620004 	bne	v1,v0,80011790 <cons_intr+0x80>
80011780:	00000000 	nop
80011784:	3c028002 	lui	v0,0x8002
80011788:	24425434 	addiu	v0,v0,21556
8001178c:	ac400204 	sw	zero,516(v0)
80011790:	8fc20020 	lw	v0,32(s8)
80011794:	0040f809 	jalr	v0
80011798:	00000000 	nop
8001179c:	afc20010 	sw	v0,16(s8)
800117a0:	8fc30010 	lw	v1,16(s8)
800117a4:	2402ffff 	li	v0,-1
800117a8:	1462ffe0 	bne	v1,v0,8001172c <cons_intr+0x1c>
800117ac:	00000000 	nop
800117b0:	03c0e821 	move	sp,s8
800117b4:	8fbf001c 	lw	ra,28(sp)
800117b8:	8fbe0018 	lw	s8,24(sp)
800117bc:	27bd0020 	addiu	sp,sp,32
800117c0:	03e00008 	jr	ra
800117c4:	00000000 	nop

800117c8 <serial_proc_data>:
800117c8:	27bdfff0 	addiu	sp,sp,-16
800117cc:	afbe000c 	sw	s8,12(sp)
800117d0:	03a0f021 	move	s8,sp
800117d4:	2402ffff 	li	v0,-1
800117d8:	afc20000 	sw	v0,0(s8)
800117dc:	8fc30000 	lw	v1,0(s8)
800117e0:	2402007f 	li	v0,127
800117e4:	14620003 	bne	v1,v0,800117f4 <serial_proc_data+0x2c>
800117e8:	00000000 	nop
800117ec:	24020008 	li	v0,8
800117f0:	afc20000 	sw	v0,0(s8)
800117f4:	8fc20000 	lw	v0,0(s8)
800117f8:	03c0e821 	move	sp,s8
800117fc:	8fbe000c 	lw	s8,12(sp)
80011800:	27bd0010 	addiu	sp,sp,16
80011804:	03e00008 	jr	ra
80011808:	00000000 	nop

8001180c <serial_intr>:
8001180c:	27bdffe8 	addiu	sp,sp,-24
80011810:	afbf0014 	sw	ra,20(sp)
80011814:	afbe0010 	sw	s8,16(sp)
80011818:	03a0f021 	move	s8,sp
8001181c:	3c028002 	lui	v0,0x8002
80011820:	8c425430 	lw	v0,21552(v0)
80011824:	10400005 	beqz	v0,8001183c <serial_intr+0x30>
80011828:	00000000 	nop
8001182c:	3c028001 	lui	v0,0x8001
80011830:	244417c8 	addiu	a0,v0,6088
80011834:	0c0045c4 	jal	80011710 <cons_intr>
80011838:	00000000 	nop
8001183c:	03c0e821 	move	sp,s8
80011840:	8fbf0014 	lw	ra,20(sp)
80011844:	8fbe0010 	lw	s8,16(sp)
80011848:	27bd0018 	addiu	sp,sp,24
8001184c:	03e00008 	jr	ra
80011850:	00000000 	nop

80011854 <cons_init>:
80011854:	27bdffe8 	addiu	sp,sp,-24
80011858:	afbf0014 	sw	ra,20(sp)
8001185c:	afbe0010 	sw	s8,16(sp)
80011860:	03a0f021 	move	s8,sp
80011864:	0c004589 	jal	80011624 <serial_init>
80011868:	00000000 	nop
8001186c:	3c028002 	lui	v0,0x8002
80011870:	8c425430 	lw	v0,21552(v0)
80011874:	14400005 	bnez	v0,8001188c <cons_init+0x38>
80011878:	00000000 	nop
8001187c:	3c028001 	lui	v0,0x8001
80011880:	24447440 	addiu	a0,v0,29760
80011884:	0c0040d7 	jal	8001035c <cprintf>
80011888:	00000000 	nop
8001188c:	03c0e821 	move	sp,s8
80011890:	8fbf0014 	lw	ra,20(sp)
80011894:	8fbe0010 	lw	s8,16(sp)
80011898:	27bd0018 	addiu	sp,sp,24
8001189c:	03e00008 	jr	ra
800118a0:	00000000 	nop

800118a4 <cons_putc>:
800118a4:	27bdffe0 	addiu	sp,sp,-32
800118a8:	afbf001c 	sw	ra,28(sp)
800118ac:	afbe0018 	sw	s8,24(sp)
800118b0:	03a0f021 	move	s8,sp
800118b4:	afc40020 	sw	a0,32(s8)
800118b8:	0c004564 	jal	80011590 <__intr_save>
800118bc:	00000000 	nop
800118c0:	afc20010 	sw	v0,16(s8)
800118c4:	8fc40020 	lw	a0,32(s8)
800118c8:	0c0045a7 	jal	8001169c <serial_putc>
800118cc:	00000000 	nop
800118d0:	8fc40010 	lw	a0,16(s8)
800118d4:	0c004579 	jal	800115e4 <__intr_restore>
800118d8:	00000000 	nop
800118dc:	03c0e821 	move	sp,s8
800118e0:	8fbf001c 	lw	ra,28(sp)
800118e4:	8fbe0018 	lw	s8,24(sp)
800118e8:	27bd0020 	addiu	sp,sp,32
800118ec:	03e00008 	jr	ra
800118f0:	00000000 	nop

800118f4 <cons_getc>:
800118f4:	27bdffe0 	addiu	sp,sp,-32
800118f8:	afbf001c 	sw	ra,28(sp)
800118fc:	afbe0018 	sw	s8,24(sp)
80011900:	03a0f021 	move	s8,sp
80011904:	afc00014 	sw	zero,20(s8)
80011908:	0c004564 	jal	80011590 <__intr_save>
8001190c:	00000000 	nop
80011910:	afc20010 	sw	v0,16(s8)
80011914:	0c004603 	jal	8001180c <serial_intr>
80011918:	00000000 	nop
8001191c:	3c028002 	lui	v0,0x8002
80011920:	24425434 	addiu	v0,v0,21556
80011924:	8c430200 	lw	v1,512(v0)
80011928:	3c028002 	lui	v0,0x8002
8001192c:	24425434 	addiu	v0,v0,21556
80011930:	8c420204 	lw	v0,516(v0)
80011934:	10620016 	beq	v1,v0,80011990 <cons_getc+0x9c>
80011938:	00000000 	nop
8001193c:	3c028002 	lui	v0,0x8002
80011940:	24425434 	addiu	v0,v0,21556
80011944:	8c420200 	lw	v0,512(v0)
80011948:	3c038002 	lui	v1,0x8002
8001194c:	24635434 	addiu	v1,v1,21556
80011950:	00431821 	addu	v1,v0,v1
80011954:	90630000 	lbu	v1,0(v1)
80011958:	afc30014 	sw	v1,20(s8)
8001195c:	24430001 	addiu	v1,v0,1
80011960:	3c028002 	lui	v0,0x8002
80011964:	24425434 	addiu	v0,v0,21556
80011968:	ac430200 	sw	v1,512(v0)
8001196c:	3c028002 	lui	v0,0x8002
80011970:	24425434 	addiu	v0,v0,21556
80011974:	8c430200 	lw	v1,512(v0)
80011978:	24020200 	li	v0,512
8001197c:	14620004 	bne	v1,v0,80011990 <cons_getc+0x9c>
80011980:	00000000 	nop
80011984:	3c028002 	lui	v0,0x8002
80011988:	24425434 	addiu	v0,v0,21556
8001198c:	ac400200 	sw	zero,512(v0)
80011990:	8fc40010 	lw	a0,16(s8)
80011994:	0c004579 	jal	800115e4 <__intr_restore>
80011998:	00000000 	nop
8001199c:	8fc20014 	lw	v0,20(s8)
800119a0:	03c0e821 	move	sp,s8
800119a4:	8fbf001c 	lw	ra,28(sp)
800119a8:	8fbe0018 	lw	s8,24(sp)
800119ac:	27bd0020 	addiu	sp,sp,32
800119b0:	03e00008 	jr	ra
800119b4:	00000000 	nop

800119b8 <pic_setmask>:
800119b8:	27bdfff0 	addiu	sp,sp,-16
800119bc:	afbe000c 	sw	s8,12(sp)
800119c0:	03a0f021 	move	s8,sp
800119c4:	00801021 	move	v0,a0
800119c8:	a3c20010 	sb	v0,16(s8)
800119cc:	3c028002 	lui	v0,0x8002
800119d0:	93c30010 	lbu	v1,16(s8)
800119d4:	a043563c 	sb	v1,22076(v0)
800119d8:	3c028002 	lui	v0,0x8002
800119dc:	8c425640 	lw	v0,22080(v0)
800119e0:	1040000f 	beqz	v0,80011a20 <pic_setmask+0x68>
800119e4:	00000000 	nop
800119e8:	40026000 	mfc0	v0,c0_status
800119ec:	afc20000 	sw	v0,0(s8)
800119f0:	8fc20000 	lw	v0,0(s8)
800119f4:	afc20004 	sw	v0,4(s8)
800119f8:	8fc30004 	lw	v1,4(s8)
800119fc:	3c02ffff 	lui	v0,0xffff
80011a00:	344200ff 	ori	v0,v0,0xff
80011a04:	00621824 	and	v1,v1,v0
80011a08:	93c20010 	lbu	v0,16(s8)
80011a0c:	00021200 	sll	v0,v0,0x8
80011a10:	00621025 	or	v0,v1,v0
80011a14:	afc20004 	sw	v0,4(s8)
80011a18:	8fc20004 	lw	v0,4(s8)
80011a1c:	40826000 	mtc0	v0,c0_status
80011a20:	03c0e821 	move	sp,s8
80011a24:	8fbe000c 	lw	s8,12(sp)
80011a28:	03e00008 	jr	ra
80011a2c:	27bd0010 	addiu	sp,sp,16

80011a30 <pic_enable>:
80011a30:	27bdffe8 	addiu	sp,sp,-24
80011a34:	afbf0014 	sw	ra,20(sp)
80011a38:	afbe0010 	sw	s8,16(sp)
80011a3c:	03a0f021 	move	s8,sp
80011a40:	afc40018 	sw	a0,24(s8)
80011a44:	8fc20018 	lw	v0,24(s8)
80011a48:	24030001 	li	v1,1
80011a4c:	00431004 	sllv	v0,v1,v0
80011a50:	00021e00 	sll	v1,v0,0x18
80011a54:	00031e03 	sra	v1,v1,0x18
80011a58:	3c028002 	lui	v0,0x8002
80011a5c:	9042563c 	lbu	v0,22076(v0)
80011a60:	00021600 	sll	v0,v0,0x18
80011a64:	00021603 	sra	v0,v0,0x18
80011a68:	00621025 	or	v0,v1,v0
80011a6c:	00021600 	sll	v0,v0,0x18
80011a70:	00021603 	sra	v0,v0,0x18
80011a74:	304200ff 	andi	v0,v0,0xff
80011a78:	00402021 	move	a0,v0
80011a7c:	0c00466e 	jal	800119b8 <pic_setmask>
80011a80:	00000000 	nop
80011a84:	03c0e821 	move	sp,s8
80011a88:	8fbf0014 	lw	ra,20(sp)
80011a8c:	8fbe0010 	lw	s8,16(sp)
80011a90:	27bd0018 	addiu	sp,sp,24
80011a94:	03e00008 	jr	ra
80011a98:	00000000 	nop

80011a9c <pic_init>:
80011a9c:	27bdffe8 	addiu	sp,sp,-24
80011aa0:	afbf0014 	sw	ra,20(sp)
80011aa4:	afbe0010 	sw	s8,16(sp)
80011aa8:	03a0f021 	move	s8,sp
80011aac:	3c028002 	lui	v0,0x8002
80011ab0:	24030001 	li	v1,1
80011ab4:	ac435640 	sw	v1,22080(v0)
80011ab8:	00001021 	move	v0,zero
80011abc:	40826000 	mtc0	v0,c0_status
80011ac0:	3c028002 	lui	v0,0x8002
80011ac4:	9042563c 	lbu	v0,22076(v0)
80011ac8:	10400005 	beqz	v0,80011ae0 <pic_init+0x44>
80011acc:	00000000 	nop
80011ad0:	3c028002 	lui	v0,0x8002
80011ad4:	9042563c 	lbu	v0,22076(v0)
80011ad8:	0c00466e 	jal	800119b8 <pic_setmask>
80011adc:	00402021 	move	a0,v0
80011ae0:	03c0e821 	move	sp,s8
80011ae4:	8fbf0014 	lw	ra,20(sp)
80011ae8:	8fbe0010 	lw	s8,16(sp)
80011aec:	03e00008 	jr	ra
80011af0:	27bd0018 	addiu	sp,sp,24

80011af4 <intr_enable>:
80011af4:	27bdfff0 	addiu	sp,sp,-16
80011af8:	afbe000c 	sw	s8,12(sp)
80011afc:	03a0f021 	move	s8,sp
80011b00:	40026000 	mfc0	v0,c0_status
80011b04:	afc20000 	sw	v0,0(s8)
80011b08:	8fc20000 	lw	v0,0(s8)
80011b0c:	afc20004 	sw	v0,4(s8)
80011b10:	8fc20004 	lw	v0,4(s8)
80011b14:	34420001 	ori	v0,v0,0x1
80011b18:	40826000 	mtc0	v0,c0_status
80011b1c:	03c0e821 	move	sp,s8
80011b20:	8fbe000c 	lw	s8,12(sp)
80011b24:	03e00008 	jr	ra
80011b28:	27bd0010 	addiu	sp,sp,16

80011b2c <intr_disable>:
80011b2c:	27bdfff0 	addiu	sp,sp,-16
80011b30:	afbe000c 	sw	s8,12(sp)
80011b34:	03a0f021 	move	s8,sp
80011b38:	40026000 	mfc0	v0,c0_status
80011b3c:	afc20000 	sw	v0,0(s8)
80011b40:	8fc20000 	lw	v0,0(s8)
80011b44:	afc20004 	sw	v0,4(s8)
80011b48:	8fc30004 	lw	v1,4(s8)
80011b4c:	2402fffe 	li	v0,-2
80011b50:	00621024 	and	v0,v1,v0
80011b54:	40826000 	mtc0	v0,c0_status
80011b58:	03c0e821 	move	sp,s8
80011b5c:	8fbe000c 	lw	s8,12(sp)
80011b60:	03e00008 	jr	ra
80011b64:	27bd0010 	addiu	sp,sp,16

80011b68 <print_ticks>:
80011b68:	27bdffe8 	addiu	sp,sp,-24
80011b6c:	afbf0014 	sw	ra,20(sp)
80011b70:	afbe0010 	sw	s8,16(sp)
80011b74:	03a0f021 	move	s8,sp
80011b78:	afc40018 	sw	a0,24(s8)
80011b7c:	3c028001 	lui	v0,0x8001
80011b80:	24447460 	addiu	a0,v0,29792
80011b84:	8fc50018 	lw	a1,24(s8)
80011b88:	24060064 	li	a2,100
80011b8c:	0c0040d7 	jal	8001035c <cprintf>
80011b90:	00000000 	nop
80011b94:	03c0e821 	move	sp,s8
80011b98:	8fbf0014 	lw	ra,20(sp)
80011b9c:	8fbe0010 	lw	s8,16(sp)
80011ba0:	27bd0018 	addiu	sp,sp,24
80011ba4:	03e00008 	jr	ra
80011ba8:	00000000 	nop

80011bac <idt_init>:
80011bac:	27bdfff8 	addiu	sp,sp,-8
80011bb0:	afbe0004 	sw	s8,4(sp)
80011bb4:	03a0f021 	move	s8,sp
80011bb8:	3c028000 	lui	v0,0x8000
80011bbc:	34420180 	ori	v0,v0,0x180
80011bc0:	3c038001 	lui	v1,0x8001
80011bc4:	24631fd4 	addiu	v1,v1,8148
80011bc8:	00032082 	srl	a0,v1,0x2
80011bcc:	3c032800 	lui	v1,0x2800
80011bd0:	00831826 	xor	v1,a0,v1
80011bd4:	ac430000 	sw	v1,0(v0)
80011bd8:	03c0e821 	move	sp,s8
80011bdc:	8fbe0004 	lw	s8,4(sp)
80011be0:	27bd0008 	addiu	sp,sp,8
80011be4:	03e00008 	jr	ra
80011be8:	00000000 	nop

80011bec <trapname>:
80011bec:	27bdfff8 	addiu	sp,sp,-8
80011bf0:	afbe0004 	sw	s8,4(sp)
80011bf4:	03a0f021 	move	s8,sp
80011bf8:	afc40008 	sw	a0,8(s8)
80011bfc:	8fc20008 	lw	v0,8(s8)
80011c00:	2c42000c 	sltiu	v0,v0,12
80011c04:	10400009 	beqz	v0,80011c2c <trapname+0x40>
80011c08:	00000000 	nop
80011c0c:	8fc30008 	lw	v1,8(s8)
80011c10:	3c028001 	lui	v0,0x8001
80011c14:	00031880 	sll	v1,v1,0x2
80011c18:	244276c4 	addiu	v0,v0,30404
80011c1c:	00621021 	addu	v0,v1,v0
80011c20:	8c420000 	lw	v0,0(v0)
80011c24:	0800470d 	j	80011c34 <trapname+0x48>
80011c28:	00000000 	nop
80011c2c:	3c028001 	lui	v0,0x8001
80011c30:	24427470 	addiu	v0,v0,29808
80011c34:	03c0e821 	move	sp,s8
80011c38:	8fbe0004 	lw	s8,4(sp)
80011c3c:	27bd0008 	addiu	sp,sp,8
80011c40:	03e00008 	jr	ra
80011c44:	00000000 	nop

80011c48 <trap_in_kernel>:
80011c48:	27bdfff8 	addiu	sp,sp,-8
80011c4c:	afbe0004 	sw	s8,4(sp)
80011c50:	03a0f021 	move	s8,sp
80011c54:	afc40008 	sw	a0,8(s8)
80011c58:	8fc20008 	lw	v0,8(s8)
80011c5c:	8c420080 	lw	v0,128(v0)
80011c60:	30420010 	andi	v0,v0,0x10
80011c64:	2c420001 	sltiu	v0,v0,1
80011c68:	03c0e821 	move	sp,s8
80011c6c:	8fbe0004 	lw	s8,4(sp)
80011c70:	27bd0008 	addiu	sp,sp,8
80011c74:	03e00008 	jr	ra
80011c78:	00000000 	nop

80011c7c <print_trapframe>:
80011c7c:	27bdffe8 	addiu	sp,sp,-24
80011c80:	afbf0014 	sw	ra,20(sp)
80011c84:	afbe0010 	sw	s8,16(sp)
80011c88:	03a0f021 	move	s8,sp
80011c8c:	afc40018 	sw	a0,24(s8)
80011c90:	3c028001 	lui	v0,0x8001
80011c94:	24447480 	addiu	a0,v0,29824
80011c98:	8fc50018 	lw	a1,24(s8)
80011c9c:	0c0040d7 	jal	8001035c <cprintf>
80011ca0:	00000000 	nop
80011ca4:	8fc20018 	lw	v0,24(s8)
80011ca8:	00402021 	move	a0,v0
80011cac:	0c004769 	jal	80011da4 <print_regs>
80011cb0:	00000000 	nop
80011cb4:	8fc20018 	lw	v0,24(s8)
80011cb8:	8c420090 	lw	v0,144(v0)
80011cbc:	3c038001 	lui	v1,0x8001
80011cc0:	24647494 	addiu	a0,v1,29844
80011cc4:	00402821 	move	a1,v0
80011cc8:	0c0040d7 	jal	8001035c <cprintf>
80011ccc:	00000000 	nop
80011cd0:	8fc20018 	lw	v0,24(s8)
80011cd4:	8c420094 	lw	v0,148(v0)
80011cd8:	3c038001 	lui	v1,0x8001
80011cdc:	246474b0 	addiu	a0,v1,29872
80011ce0:	00402821 	move	a1,v0
80011ce4:	0c0040d7 	jal	8001035c <cprintf>
80011ce8:	00000000 	nop
80011cec:	8fc20018 	lw	v0,24(s8)
80011cf0:	8c420080 	lw	v0,128(v0)
80011cf4:	3c038001 	lui	v1,0x8001
80011cf8:	246474cc 	addiu	a0,v1,29900
80011cfc:	00402821 	move	a1,v0
80011d00:	0c0040d7 	jal	8001035c <cprintf>
80011d04:	00000000 	nop
80011d08:	8fc20018 	lw	v0,24(s8)
80011d0c:	8c420084 	lw	v0,132(v0)
80011d10:	3c038001 	lui	v1,0x8001
80011d14:	246474e8 	addiu	a0,v1,29928
80011d18:	00402821 	move	a1,v0
80011d1c:	0c0040d7 	jal	8001035c <cprintf>
80011d20:	00000000 	nop
80011d24:	8fc20018 	lw	v0,24(s8)
80011d28:	8c420088 	lw	v0,136(v0)
80011d2c:	3c038001 	lui	v1,0x8001
80011d30:	24647504 	addiu	a0,v1,29956
80011d34:	00402821 	move	a1,v0
80011d38:	0c0040d7 	jal	8001035c <cprintf>
80011d3c:	00000000 	nop
80011d40:	8fc20018 	lw	v0,24(s8)
80011d44:	8c42008c 	lw	v0,140(v0)
80011d48:	3c038001 	lui	v1,0x8001
80011d4c:	24647520 	addiu	a0,v1,29984
80011d50:	00402821 	move	a1,v0
80011d54:	0c0040d7 	jal	8001035c <cprintf>
80011d58:	00000000 	nop
80011d5c:	8fc20018 	lw	v0,24(s8)
80011d60:	8c420084 	lw	v0,132(v0)
80011d64:	3042007c 	andi	v0,v0,0x7c
80011d68:	00021082 	srl	v0,v0,0x2
80011d6c:	00402021 	move	a0,v0
80011d70:	0c0046fb 	jal	80011bec <trapname>
80011d74:	00000000 	nop
80011d78:	3c038001 	lui	v1,0x8001
80011d7c:	2464753c 	addiu	a0,v1,30012
80011d80:	00402821 	move	a1,v0
80011d84:	0c0040d7 	jal	8001035c <cprintf>
80011d88:	00000000 	nop
80011d8c:	03c0e821 	move	sp,s8
80011d90:	8fbf0014 	lw	ra,20(sp)
80011d94:	8fbe0010 	lw	s8,16(sp)
80011d98:	27bd0018 	addiu	sp,sp,24
80011d9c:	03e00008 	jr	ra
80011da0:	00000000 	nop

80011da4 <print_regs>:
80011da4:	27bdffe8 	addiu	sp,sp,-24
80011da8:	afbf0014 	sw	ra,20(sp)
80011dac:	afbe0010 	sw	s8,16(sp)
80011db0:	03a0f021 	move	s8,sp
80011db4:	afc40018 	sw	a0,24(s8)
80011db8:	8fc20018 	lw	v0,24(s8)
80011dbc:	8c42007c 	lw	v0,124(v0)
80011dc0:	3c038001 	lui	v1,0x8001
80011dc4:	24647550 	addiu	a0,v1,30032
80011dc8:	00402821 	move	a1,v0
80011dcc:	0c0040d7 	jal	8001035c <cprintf>
80011dd0:	00000000 	nop
80011dd4:	03c0e821 	move	sp,s8
80011dd8:	8fbf0014 	lw	ra,20(sp)
80011ddc:	8fbe0010 	lw	s8,16(sp)
80011de0:	27bd0018 	addiu	sp,sp,24
80011de4:	03e00008 	jr	ra
80011de8:	00000000 	nop

80011dec <trap_dispatch>:
80011dec:	27bdff48 	addiu	sp,sp,-184
80011df0:	afbf00b4 	sw	ra,180(sp)
80011df4:	afbe00b0 	sw	s8,176(sp)
80011df8:	03a0f021 	move	s8,sp
80011dfc:	afc400b8 	sw	a0,184(s8)
80011e00:	3c028001 	lui	v0,0x8001
80011e04:	24447560 	addiu	a0,v0,30048
80011e08:	8fc500b8 	lw	a1,184(s8)
80011e0c:	0c0040d7 	jal	8001035c <cprintf>
80011e10:	00000000 	nop
80011e14:	8fc200b8 	lw	v0,184(s8)
80011e18:	8c420084 	lw	v0,132(v0)
80011e1c:	3042007c 	andi	v0,v0,0x7c
80011e20:	00021082 	srl	v0,v0,0x2
80011e24:	14400048 	bnez	v0,80011f48 <trap_dispatch+0x15c>
80011e28:	00000000 	nop
80011e2c:	8fc200b8 	lw	v0,184(s8)
80011e30:	8c430084 	lw	v1,132(v0)
80011e34:	8fc200b8 	lw	v0,184(s8)
80011e38:	8c420080 	lw	v0,128(v0)
80011e3c:	00621024 	and	v0,v1,v0
80011e40:	3042ff00 	andi	v0,v0,0xff00
80011e44:	00021202 	srl	v0,v0,0x8
80011e48:	24030004 	li	v1,4
80011e4c:	10430025 	beq	v0,v1,80011ee4 <trap_dispatch+0xf8>
80011e50:	00000000 	nop
80011e54:	24030080 	li	v1,128
80011e58:	1443002f 	bne	v0,v1,80011f18 <trap_dispatch+0x12c>
80011e5c:	00000000 	nop
80011e60:	3c028002 	lui	v0,0x8002
80011e64:	8c42565c 	lw	v0,22108(v0)
80011e68:	24430001 	addiu	v1,v0,1
80011e6c:	3c028002 	lui	v0,0x8002
80011e70:	ac43565c 	sw	v1,22108(v0)
80011e74:	3c028002 	lui	v0,0x8002
80011e78:	8c43565c 	lw	v1,22108(v0)
80011e7c:	3c0251eb 	lui	v0,0x51eb
80011e80:	3442851f 	ori	v0,v0,0x851f
80011e84:	00620019 	multu	v1,v0
80011e88:	00001010 	mfhi	v0
80011e8c:	00021142 	srl	v0,v0,0x5
80011e90:	00021080 	sll	v0,v0,0x2
80011e94:	00022080 	sll	a0,v0,0x2
80011e98:	00441021 	addu	v0,v0,a0
80011e9c:	00022080 	sll	a0,v0,0x2
80011ea0:	00441021 	addu	v0,v0,a0
80011ea4:	00621023 	subu	v0,v1,v0
80011ea8:	1440000a 	bnez	v0,80011ed4 <trap_dispatch+0xe8>
80011eac:	00000000 	nop
80011eb0:	3c028002 	lui	v0,0x8002
80011eb4:	8c425024 	lw	v0,20516(v0)
80011eb8:	00401821 	move	v1,v0
80011ebc:	24440001 	addiu	a0,v0,1
80011ec0:	3c028002 	lui	v0,0x8002
80011ec4:	ac445024 	sw	a0,20516(v0)
80011ec8:	00602021 	move	a0,v1
80011ecc:	0c0046da 	jal	80011b68 <print_ticks>
80011ed0:	00000000 	nop
80011ed4:	0c004555 	jal	80011554 <clock_intr>
80011ed8:	00000000 	nop
80011edc:	080047d0 	j	80011f40 <trap_dispatch+0x154>
80011ee0:	00000000 	nop
80011ee4:	0c00463d 	jal	800118f4 <cons_getc>
80011ee8:	00000000 	nop
80011eec:	a3c20014 	sb	v0,20(s8)
80011ef0:	93c30014 	lbu	v1,20(s8)
80011ef4:	93c20014 	lbu	v0,20(s8)
80011ef8:	3c048001 	lui	a0,0x8001
80011efc:	2484757c 	addiu	a0,a0,30076
80011f00:	00602821 	move	a1,v1
80011f04:	00403021 	move	a2,v0
80011f08:	0c0040d7 	jal	8001035c <cprintf>
80011f0c:	00000000 	nop
80011f10:	080047d0 	j	80011f40 <trap_dispatch+0x154>
80011f14:	00000000 	nop
80011f18:	8fc400b8 	lw	a0,184(s8)
80011f1c:	0c00471f 	jal	80011c7c <print_trapframe>
80011f20:	00000000 	nop
80011f24:	3c028001 	lui	v0,0x8001
80011f28:	24447590 	addiu	a0,v0,30096
80011f2c:	24050076 	li	a1,118
80011f30:	3c028001 	lui	v0,0x8001
80011f34:	244675a4 	addiu	a2,v0,30116
80011f38:	0c00418e 	jal	80010638 <__panic>
80011f3c:	00000000 	nop
80011f40:	080047e1 	j	80011f84 <trap_dispatch+0x198>
80011f44:	00000000 	nop
80011f48:	8fc400b8 	lw	a0,184(s8)
80011f4c:	0c004712 	jal	80011c48 <trap_in_kernel>
80011f50:	00000000 	nop
80011f54:	1040000b 	beqz	v0,80011f84 <trap_dispatch+0x198>
80011f58:	00000000 	nop
80011f5c:	8fc400b8 	lw	a0,184(s8)
80011f60:	0c00471f 	jal	80011c7c <print_trapframe>
80011f64:	00000000 	nop
80011f68:	3c028001 	lui	v0,0x8001
80011f6c:	24447590 	addiu	a0,v0,30096
80011f70:	2405007e 	li	a1,126
80011f74:	3c028001 	lui	v0,0x8001
80011f78:	244675b4 	addiu	a2,v0,30132
80011f7c:	0c00418e 	jal	80010638 <__panic>
80011f80:	00000000 	nop
80011f84:	03c0e821 	move	sp,s8
80011f88:	8fbf00b4 	lw	ra,180(sp)
80011f8c:	8fbe00b0 	lw	s8,176(sp)
80011f90:	27bd00b8 	addiu	sp,sp,184
80011f94:	03e00008 	jr	ra
80011f98:	00000000 	nop

80011f9c <trap>:
80011f9c:	27bdffe8 	addiu	sp,sp,-24
80011fa0:	afbf0014 	sw	ra,20(sp)
80011fa4:	afbe0010 	sw	s8,16(sp)
80011fa8:	03a0f021 	move	s8,sp
80011fac:	afc40018 	sw	a0,24(s8)
80011fb0:	8fc40018 	lw	a0,24(s8)
80011fb4:	0c00477b 	jal	80011dec <trap_dispatch>
80011fb8:	00000000 	nop
80011fbc:	03c0e821 	move	sp,s8
80011fc0:	8fbf0014 	lw	ra,20(sp)
80011fc4:	8fbe0010 	lw	s8,16(sp)
80011fc8:	27bd0018 	addiu	sp,sp,24
80011fcc:	03e00008 	jr	ra
80011fd0:	00000000 	nop

80011fd4 <__alltraps>:
80011fd4:	401a6000 335a0010 03a0d821 13400004     .`.@..Z3!.....@.
80011fe4:	00000000 3c1d8002 27bd5660 8fbd0000     .......<`V.'....
80011ff4:	27bdff60 afa10004 afa20008 afa3000c     `..'............
80012004:	afa40010 afa50014 afa60018 afa7001c     ................
80012014:	afa80020 afa90024 afaa0028 afab002c      ...$...(...,...
80012024:	afac0030 afad0034 afae0038 afaf003c     0...4...8...<...
80012034:	afb00040 afb10044 afb20048 afb3004c     @...D...H...L...
80012044:	afb40050 afb50054 afb60058 afb7005c     P...T...X...\...
80012054:	afb80060 afb90064 afbc0070 afbb0074     `...d...p...t...
80012064:	afbe0078 afbf007c 400c6000 afac0080     x...|....`.@....
80012074:	400d6800 afad0084 400e7000 afae0088     .h.@.....p.@....
80012084:	400f4000 afaf008c 00004012 afa80090     .@.@.....@......
80012094:	00004010 afa80094 03a02021 27bdfff0     .@......! .....'
800120a4:	03a0f021 0c0047e7 00000000 03c0e821     !....G......!...
800120b4:	27bd0010                                ...'

800120b8 <__trapret>:
800120b8:	8fa20008 8fa3000c 8fa40010 8fa50014     ................
800120c8:	8fa60018 8fa7001c 8fa80020 8fa90024     ........ ...$...
800120d8:	8faa0028 8fab002c 8fac0030 8fad0034     (...,...0...4...
800120e8:	8fae0038 8faf003c 8fb00040 8fb10044     8...<...@...D...
800120f8:	8fb20048 8fb3004c 8fb40050 8fb50054     H...L...P...T...
80012108:	8fb60058 8fb7005c 8fb80060 8fb90064     X...\...`...d...
80012118:	8fbc0070 8fbb0074 8fbe0078 8fbf007c     p...t...x...|...
80012128:	8fba0090 03400013 8fba0094 03400011     ......@.......@.
80012138:	8fba0080 409a6000 8fba0088 409a7000     .....`.@.....p.@
80012148:	8fa10004 27bd00a0 3c1a8002 275a5660     .......'...<`VZ'
80012158:	af5d0000 0360e821 42000018              ..].!.`....B

80012164 <__intr_save>:
80012164:	27bdffe0 	addiu	sp,sp,-32
80012168:	afbf001c 	sw	ra,28(sp)
8001216c:	afbe0018 	sw	s8,24(sp)
80012170:	03a0f021 	move	s8,sp
80012174:	40026000 	mfc0	v0,c0_status
80012178:	afc20010 	sw	v0,16(s8)
8001217c:	8fc20010 	lw	v0,16(s8)
80012180:	30420001 	andi	v0,v0,0x1
80012184:	304200ff 	andi	v0,v0,0xff
80012188:	10400005 	beqz	v0,800121a0 <__intr_save+0x3c>
8001218c:	00000000 	nop
80012190:	0c0046cb 	jal	80011b2c <intr_disable>
80012194:	00000000 	nop
80012198:	08004869 	j	800121a4 <__intr_save+0x40>
8001219c:	24020001 	li	v0,1
800121a0:	00001021 	move	v0,zero
800121a4:	03c0e821 	move	sp,s8
800121a8:	8fbf001c 	lw	ra,28(sp)
800121ac:	8fbe0018 	lw	s8,24(sp)
800121b0:	03e00008 	jr	ra
800121b4:	27bd0020 	addiu	sp,sp,32

800121b8 <__intr_restore>:
800121b8:	27bdffe8 	addiu	sp,sp,-24
800121bc:	afbf0014 	sw	ra,20(sp)
800121c0:	afbe0010 	sw	s8,16(sp)
800121c4:	03a0f021 	move	s8,sp
800121c8:	afc40018 	sw	a0,24(s8)
800121cc:	8fc20018 	lw	v0,24(s8)
800121d0:	10400003 	beqz	v0,800121e0 <__intr_restore+0x28>
800121d4:	00000000 	nop
800121d8:	0c0046bd 	jal	80011af4 <intr_enable>
800121dc:	00000000 	nop
800121e0:	03c0e821 	move	sp,s8
800121e4:	8fbf0014 	lw	ra,20(sp)
800121e8:	8fbe0010 	lw	s8,16(sp)
800121ec:	27bd0018 	addiu	sp,sp,24
800121f0:	03e00008 	jr	ra
800121f4:	00000000 	nop

800121f8 <page2ppn>:
800121f8:	27bdfff8 	addiu	sp,sp,-8
800121fc:	afbe0004 	sw	s8,4(sp)
80012200:	03a0f021 	move	s8,sp
80012204:	afc40008 	sw	a0,8(s8)
80012208:	8fc30008 	lw	v1,8(s8)
8001220c:	3c028002 	lui	v0,0x8002
80012210:	8c425668 	lw	v0,22120(v0)
80012214:	00621023 	subu	v0,v1,v0
80012218:	00021883 	sra	v1,v0,0x2
8001221c:	3c02cccc 	lui	v0,0xcccc
80012220:	3442cccd 	ori	v0,v0,0xcccd
80012224:	70621002 	mul	v0,v1,v0
80012228:	03c0e821 	move	sp,s8
8001222c:	8fbe0004 	lw	s8,4(sp)
80012230:	27bd0008 	addiu	sp,sp,8
80012234:	03e00008 	jr	ra
80012238:	00000000 	nop

8001223c <page2pa>:
8001223c:	27bdffe8 	addiu	sp,sp,-24
80012240:	afbf0014 	sw	ra,20(sp)
80012244:	afbe0010 	sw	s8,16(sp)
80012248:	03a0f021 	move	s8,sp
8001224c:	afc40018 	sw	a0,24(s8)
80012250:	8fc40018 	lw	a0,24(s8)
80012254:	0c00487e 	jal	800121f8 <page2ppn>
80012258:	00000000 	nop
8001225c:	00021300 	sll	v0,v0,0xc
80012260:	03c0e821 	move	sp,s8
80012264:	8fbf0014 	lw	ra,20(sp)
80012268:	8fbe0010 	lw	s8,16(sp)
8001226c:	27bd0018 	addiu	sp,sp,24
80012270:	03e00008 	jr	ra
80012274:	00000000 	nop

80012278 <pa2page>:
80012278:	27bdffe8 	addiu	sp,sp,-24
8001227c:	afbf0014 	sw	ra,20(sp)
80012280:	afbe0010 	sw	s8,16(sp)
80012284:	03a0f021 	move	s8,sp
80012288:	afc40018 	sw	a0,24(s8)
8001228c:	8fc20018 	lw	v0,24(s8)
80012290:	00021b02 	srl	v1,v0,0xc
80012294:	3c028002 	lui	v0,0x8002
80012298:	8c425644 	lw	v0,22084(v0)
8001229c:	0062102b 	sltu	v0,v1,v0
800122a0:	14400008 	bnez	v0,800122c4 <pa2page+0x4c>
800122a4:	00000000 	nop
800122a8:	3c028001 	lui	v0,0x8001
800122ac:	244476f4 	addiu	a0,v0,30452
800122b0:	2405005b 	li	a1,91
800122b4:	3c028001 	lui	v0,0x8001
800122b8:	24467704 	addiu	a2,v0,30468
800122bc:	0c00418e 	jal	80010638 <__panic>
800122c0:	00000000 	nop
800122c4:	3c028002 	lui	v0,0x8002
800122c8:	8c435668 	lw	v1,22120(v0)
800122cc:	8fc20018 	lw	v0,24(s8)
800122d0:	00021302 	srl	v0,v0,0xc
800122d4:	00021080 	sll	v0,v0,0x2
800122d8:	00022080 	sll	a0,v0,0x2
800122dc:	00441021 	addu	v0,v0,a0
800122e0:	00621021 	addu	v0,v1,v0
800122e4:	03c0e821 	move	sp,s8
800122e8:	8fbf0014 	lw	ra,20(sp)
800122ec:	8fbe0010 	lw	s8,16(sp)
800122f0:	27bd0018 	addiu	sp,sp,24
800122f4:	03e00008 	jr	ra
800122f8:	00000000 	nop

800122fc <page2kva>:
800122fc:	27bdffe0 	addiu	sp,sp,-32
80012300:	afbf001c 	sw	ra,28(sp)
80012304:	afbe0018 	sw	s8,24(sp)
80012308:	03a0f021 	move	s8,sp
8001230c:	afc40020 	sw	a0,32(s8)
80012310:	8fc40020 	lw	a0,32(s8)
80012314:	0c00488f 	jal	8001223c <page2pa>
80012318:	00000000 	nop
8001231c:	afc20014 	sw	v0,20(s8)
80012320:	8fc20014 	lw	v0,20(s8)
80012324:	00021302 	srl	v0,v0,0xc
80012328:	afc20010 	sw	v0,16(s8)
8001232c:	3c028002 	lui	v0,0x8002
80012330:	8c425644 	lw	v0,22084(v0)
80012334:	8fc30010 	lw	v1,16(s8)
80012338:	0062102b 	sltu	v0,v1,v0
8001233c:	14400009 	bnez	v0,80012364 <page2kva+0x68>
80012340:	00000000 	nop
80012344:	3c028001 	lui	v0,0x8001
80012348:	244476f4 	addiu	a0,v0,30452
8001234c:	24050062 	li	a1,98
80012350:	3c028001 	lui	v0,0x8001
80012354:	24467724 	addiu	a2,v0,30500
80012358:	8fc70014 	lw	a3,20(s8)
8001235c:	0c00418e 	jal	80010638 <__panic>
80012360:	00000000 	nop
80012364:	8fc30014 	lw	v1,20(s8)
80012368:	3c028000 	lui	v0,0x8000
8001236c:	00621021 	addu	v0,v1,v0
80012370:	03c0e821 	move	sp,s8
80012374:	8fbf001c 	lw	ra,28(sp)
80012378:	8fbe0018 	lw	s8,24(sp)
8001237c:	27bd0020 	addiu	sp,sp,32
80012380:	03e00008 	jr	ra
80012384:	00000000 	nop

80012388 <pte2page>:
80012388:	27bdffe8 	addiu	sp,sp,-24
8001238c:	afbf0014 	sw	ra,20(sp)
80012390:	afbe0010 	sw	s8,16(sp)
80012394:	03a0f021 	move	s8,sp
80012398:	afc40018 	sw	a0,24(s8)
8001239c:	8fc20018 	lw	v0,24(s8)
800123a0:	30420001 	andi	v0,v0,0x1
800123a4:	14400008 	bnez	v0,800123c8 <pte2page+0x40>
800123a8:	00000000 	nop
800123ac:	3c028001 	lui	v0,0x8001
800123b0:	244476f4 	addiu	a0,v0,30452
800123b4:	2405006d 	li	a1,109
800123b8:	3c028001 	lui	v0,0x8001
800123bc:	24467748 	addiu	a2,v0,30536
800123c0:	0c00418e 	jal	80010638 <__panic>
800123c4:	00000000 	nop
800123c8:	8fc30018 	lw	v1,24(s8)
800123cc:	2402f000 	li	v0,-4096
800123d0:	00621024 	and	v0,v1,v0
800123d4:	00402021 	move	a0,v0
800123d8:	0c00489e 	jal	80012278 <pa2page>
800123dc:	00000000 	nop
800123e0:	03c0e821 	move	sp,s8
800123e4:	8fbf0014 	lw	ra,20(sp)
800123e8:	8fbe0010 	lw	s8,16(sp)
800123ec:	27bd0018 	addiu	sp,sp,24
800123f0:	03e00008 	jr	ra
800123f4:	00000000 	nop

800123f8 <page_ref>:
800123f8:	27bdfff8 	addiu	sp,sp,-8
800123fc:	afbe0004 	sw	s8,4(sp)
80012400:	03a0f021 	move	s8,sp
80012404:	afc40008 	sw	a0,8(s8)
80012408:	8fc20008 	lw	v0,8(s8)
8001240c:	8c420000 	lw	v0,0(v0)
80012410:	03c0e821 	move	sp,s8
80012414:	8fbe0004 	lw	s8,4(sp)
80012418:	27bd0008 	addiu	sp,sp,8
8001241c:	03e00008 	jr	ra
80012420:	00000000 	nop

80012424 <set_page_ref>:
80012424:	27bdfff8 	addiu	sp,sp,-8
80012428:	afbe0004 	sw	s8,4(sp)
8001242c:	03a0f021 	move	s8,sp
80012430:	afc40008 	sw	a0,8(s8)
80012434:	afc5000c 	sw	a1,12(s8)
80012438:	8fc20008 	lw	v0,8(s8)
8001243c:	8fc3000c 	lw	v1,12(s8)
80012440:	ac430000 	sw	v1,0(v0)
80012444:	03c0e821 	move	sp,s8
80012448:	8fbe0004 	lw	s8,4(sp)
8001244c:	27bd0008 	addiu	sp,sp,8
80012450:	03e00008 	jr	ra
80012454:	00000000 	nop

80012458 <page_ref_inc>:
80012458:	27bdfff8 	addiu	sp,sp,-8
8001245c:	afbe0004 	sw	s8,4(sp)
80012460:	03a0f021 	move	s8,sp
80012464:	afc40008 	sw	a0,8(s8)
80012468:	8fc20008 	lw	v0,8(s8)
8001246c:	8c420000 	lw	v0,0(v0)
80012470:	24430001 	addiu	v1,v0,1
80012474:	8fc20008 	lw	v0,8(s8)
80012478:	ac430000 	sw	v1,0(v0)
8001247c:	8fc20008 	lw	v0,8(s8)
80012480:	8c420000 	lw	v0,0(v0)
80012484:	03c0e821 	move	sp,s8
80012488:	8fbe0004 	lw	s8,4(sp)
8001248c:	27bd0008 	addiu	sp,sp,8
80012490:	03e00008 	jr	ra
80012494:	00000000 	nop

80012498 <page_ref_dec>:
80012498:	27bdfff8 	addiu	sp,sp,-8
8001249c:	afbe0004 	sw	s8,4(sp)
800124a0:	03a0f021 	move	s8,sp
800124a4:	afc40008 	sw	a0,8(s8)
800124a8:	8fc20008 	lw	v0,8(s8)
800124ac:	8c420000 	lw	v0,0(v0)
800124b0:	2443ffff 	addiu	v1,v0,-1
800124b4:	8fc20008 	lw	v0,8(s8)
800124b8:	ac430000 	sw	v1,0(v0)
800124bc:	8fc20008 	lw	v0,8(s8)
800124c0:	8c420000 	lw	v0,0(v0)
800124c4:	03c0e821 	move	sp,s8
800124c8:	8fbe0004 	lw	s8,4(sp)
800124cc:	27bd0008 	addiu	sp,sp,8
800124d0:	03e00008 	jr	ra
800124d4:	00000000 	nop

800124d8 <load_ksp>:
800124d8:	27bdfff8 	addiu	sp,sp,-8
800124dc:	afbe0004 	sw	s8,4(sp)
800124e0:	03a0f021 	move	s8,sp
800124e4:	afc40008 	sw	a0,8(s8)
800124e8:	3c028002 	lui	v0,0x8002
800124ec:	8fc30008 	lw	v1,8(s8)
800124f0:	ac435660 	sw	v1,22112(v0)
800124f4:	03c0e821 	move	sp,s8
800124f8:	8fbe0004 	lw	s8,4(sp)
800124fc:	27bd0008 	addiu	sp,sp,8
80012500:	03e00008 	jr	ra
80012504:	00000000 	nop

80012508 <init_pmm_manager>:
80012508:	27bdffe8 	addiu	sp,sp,-24
8001250c:	afbf0014 	sw	ra,20(sp)
80012510:	afbe0010 	sw	s8,16(sp)
80012514:	03a0f021 	move	s8,sp
80012518:	3c028002 	lui	v0,0x8002
8001251c:	3c038002 	lui	v1,0x8002
80012520:	24638098 	addiu	v1,v1,-32616
80012524:	ac435664 	sw	v1,22116(v0)
80012528:	3c028002 	lui	v0,0x8002
8001252c:	8c425664 	lw	v0,22116(v0)
80012530:	8c420000 	lw	v0,0(v0)
80012534:	3c038001 	lui	v1,0x8001
80012538:	24647774 	addiu	a0,v1,30580
8001253c:	00402821 	move	a1,v0
80012540:	0c0040d7 	jal	8001035c <cprintf>
80012544:	00000000 	nop
80012548:	3c028002 	lui	v0,0x8002
8001254c:	8c425664 	lw	v0,22116(v0)
80012550:	8c420004 	lw	v0,4(v0)
80012554:	0040f809 	jalr	v0
80012558:	00000000 	nop
8001255c:	03c0e821 	move	sp,s8
80012560:	8fbf0014 	lw	ra,20(sp)
80012564:	8fbe0010 	lw	s8,16(sp)
80012568:	27bd0018 	addiu	sp,sp,24
8001256c:	03e00008 	jr	ra
80012570:	00000000 	nop

80012574 <init_memmap>:
80012574:	27bdffe8 	addiu	sp,sp,-24
80012578:	afbf0014 	sw	ra,20(sp)
8001257c:	afbe0010 	sw	s8,16(sp)
80012580:	03a0f021 	move	s8,sp
80012584:	afc40018 	sw	a0,24(s8)
80012588:	afc5001c 	sw	a1,28(s8)
8001258c:	3c028002 	lui	v0,0x8002
80012590:	8c425664 	lw	v0,22116(v0)
80012594:	8c420008 	lw	v0,8(v0)
80012598:	8fc40018 	lw	a0,24(s8)
8001259c:	8fc5001c 	lw	a1,28(s8)
800125a0:	0040f809 	jalr	v0
800125a4:	00000000 	nop
800125a8:	03c0e821 	move	sp,s8
800125ac:	8fbf0014 	lw	ra,20(sp)
800125b0:	8fbe0010 	lw	s8,16(sp)
800125b4:	27bd0018 	addiu	sp,sp,24
800125b8:	03e00008 	jr	ra
800125bc:	00000000 	nop

800125c0 <alloc_pages>:
800125c0:	27bdffe0 	addiu	sp,sp,-32
800125c4:	afbf001c 	sw	ra,28(sp)
800125c8:	afbe0018 	sw	s8,24(sp)
800125cc:	03a0f021 	move	s8,sp
800125d0:	afc40020 	sw	a0,32(s8)
800125d4:	afc00014 	sw	zero,20(s8)
800125d8:	0c004859 	jal	80012164 <__intr_save>
800125dc:	00000000 	nop
800125e0:	afc20010 	sw	v0,16(s8)
800125e4:	3c028002 	lui	v0,0x8002
800125e8:	8c425664 	lw	v0,22116(v0)
800125ec:	8c42000c 	lw	v0,12(v0)
800125f0:	8fc40020 	lw	a0,32(s8)
800125f4:	0040f809 	jalr	v0
800125f8:	00000000 	nop
800125fc:	afc20014 	sw	v0,20(s8)
80012600:	8fc40010 	lw	a0,16(s8)
80012604:	0c00486e 	jal	800121b8 <__intr_restore>
80012608:	00000000 	nop
8001260c:	8fc20014 	lw	v0,20(s8)
80012610:	03c0e821 	move	sp,s8
80012614:	8fbf001c 	lw	ra,28(sp)
80012618:	8fbe0018 	lw	s8,24(sp)
8001261c:	27bd0020 	addiu	sp,sp,32
80012620:	03e00008 	jr	ra
80012624:	00000000 	nop

80012628 <free_pages>:
80012628:	27bdffe0 	addiu	sp,sp,-32
8001262c:	afbf001c 	sw	ra,28(sp)
80012630:	afbe0018 	sw	s8,24(sp)
80012634:	03a0f021 	move	s8,sp
80012638:	afc40020 	sw	a0,32(s8)
8001263c:	afc50024 	sw	a1,36(s8)
80012640:	0c004859 	jal	80012164 <__intr_save>
80012644:	00000000 	nop
80012648:	afc20010 	sw	v0,16(s8)
8001264c:	3c028002 	lui	v0,0x8002
80012650:	8c425664 	lw	v0,22116(v0)
80012654:	8c420010 	lw	v0,16(v0)
80012658:	8fc40020 	lw	a0,32(s8)
8001265c:	8fc50024 	lw	a1,36(s8)
80012660:	0040f809 	jalr	v0
80012664:	00000000 	nop
80012668:	8fc40010 	lw	a0,16(s8)
8001266c:	0c00486e 	jal	800121b8 <__intr_restore>
80012670:	00000000 	nop
80012674:	03c0e821 	move	sp,s8
80012678:	8fbf001c 	lw	ra,28(sp)
8001267c:	8fbe0018 	lw	s8,24(sp)
80012680:	27bd0020 	addiu	sp,sp,32
80012684:	03e00008 	jr	ra
80012688:	00000000 	nop

8001268c <nr_free_pages>:
8001268c:	27bdffe0 	addiu	sp,sp,-32
80012690:	afbf001c 	sw	ra,28(sp)
80012694:	afbe0018 	sw	s8,24(sp)
80012698:	03a0f021 	move	s8,sp
8001269c:	0c004859 	jal	80012164 <__intr_save>
800126a0:	00000000 	nop
800126a4:	afc20010 	sw	v0,16(s8)
800126a8:	3c028002 	lui	v0,0x8002
800126ac:	8c425664 	lw	v0,22116(v0)
800126b0:	8c420014 	lw	v0,20(v0)
800126b4:	0040f809 	jalr	v0
800126b8:	00000000 	nop
800126bc:	afc20014 	sw	v0,20(s8)
800126c0:	8fc40010 	lw	a0,16(s8)
800126c4:	0c00486e 	jal	800121b8 <__intr_restore>
800126c8:	00000000 	nop
800126cc:	8fc20014 	lw	v0,20(s8)
800126d0:	03c0e821 	move	sp,s8
800126d4:	8fbf001c 	lw	ra,28(sp)
800126d8:	8fbe0018 	lw	s8,24(sp)
800126dc:	27bd0020 	addiu	sp,sp,32
800126e0:	03e00008 	jr	ra
800126e4:	00000000 	nop

800126e8 <page_init>:
800126e8:	27bdffa0 	addiu	sp,sp,-96
800126ec:	afbf005c 	sw	ra,92(sp)
800126f0:	afbe0058 	sw	s8,88(sp)
800126f4:	afb10054 	sw	s1,84(sp)
800126f8:	afb00050 	sw	s0,80(sp)
800126fc:	03a0f021 	move	s8,sp
80012700:	3c040080 	lui	a0,0x80
80012704:	00002821 	move	a1,zero
80012708:	afc40048 	sw	a0,72(s8)
8001270c:	afc5004c 	sw	a1,76(s8)
80012710:	8fc40048 	lw	a0,72(s8)
80012714:	8fc5004c 	lw	a1,76(s8)
80012718:	00053500 	sll	a2,a1,0x14
8001271c:	00041302 	srl	v0,a0,0xc
80012720:	00c21025 	or	v0,a2,v0
80012724:	00051b02 	srl	v1,a1,0xc
80012728:	00401821 	move	v1,v0
8001272c:	3c028002 	lui	v0,0x8002
80012730:	ac435644 	sw	v1,22084(v0)
80012734:	3c028002 	lui	v0,0x8002
80012738:	2442565c 	addiu	v0,v0,22108
8001273c:	24420fff 	addiu	v0,v0,4095
80012740:	afc2003c 	sw	v0,60(s8)
80012744:	8fc3003c 	lw	v1,60(s8)
80012748:	2402f000 	li	v0,-4096
8001274c:	00621024 	and	v0,v1,v0
80012750:	00401821 	move	v1,v0
80012754:	3c028002 	lui	v0,0x8002
80012758:	ac435668 	sw	v1,22120(v0)
8001275c:	afc00044 	sw	zero,68(s8)
80012760:	080049f5 	j	800127d4 <page_init+0xec>
80012764:	00000000 	nop
80012768:	3c028002 	lui	v0,0x8002
8001276c:	8c435668 	lw	v1,22120(v0)
80012770:	8fc20044 	lw	v0,68(s8)
80012774:	00021080 	sll	v0,v0,0x2
80012778:	00022080 	sll	a0,v0,0x2
8001277c:	00441021 	addu	v0,v0,a0
80012780:	00621021 	addu	v0,v1,v0
80012784:	24420004 	addiu	v0,v0,4
80012788:	afc00014 	sw	zero,20(s8)
8001278c:	afc20018 	sw	v0,24(s8)
80012790:	0c004859 	jal	80012164 <__intr_save>
80012794:	00000000 	nop
80012798:	afc20010 	sw	v0,16(s8)
8001279c:	8fc20018 	lw	v0,24(s8)
800127a0:	8fc30018 	lw	v1,24(s8)
800127a4:	8c640000 	lw	a0,0(v1)
800127a8:	24050001 	li	a1,1
800127ac:	8fc30014 	lw	v1,20(s8)
800127b0:	00651804 	sllv	v1,a1,v1
800127b4:	00831825 	or	v1,a0,v1
800127b8:	ac430000 	sw	v1,0(v0)
800127bc:	8fc40010 	lw	a0,16(s8)
800127c0:	0c00486e 	jal	800121b8 <__intr_restore>
800127c4:	00000000 	nop
800127c8:	8fc20044 	lw	v0,68(s8)
800127cc:	24420001 	addiu	v0,v0,1
800127d0:	afc20044 	sw	v0,68(s8)
800127d4:	8fc30044 	lw	v1,68(s8)
800127d8:	3c028002 	lui	v0,0x8002
800127dc:	8c425644 	lw	v0,22084(v0)
800127e0:	0062102b 	sltu	v0,v1,v0
800127e4:	1440ffe0 	bnez	v0,80012768 <page_init+0x80>
800127e8:	00000000 	nop
800127ec:	3c028002 	lui	v0,0x8002
800127f0:	8c425644 	lw	v0,22084(v0)
800127f4:	00021080 	sll	v0,v0,0x2
800127f8:	00021880 	sll	v1,v0,0x2
800127fc:	00431821 	addu	v1,v0,v1
80012800:	3c028002 	lui	v0,0x8002
80012804:	8c425668 	lw	v0,22120(v0)
80012808:	00621021 	addu	v0,v1,v0
8001280c:	afc20038 	sw	v0,56(s8)
80012810:	8fc20038 	lw	v0,56(s8)
80012814:	04400009 	bltz	v0,8001283c <page_init+0x154>
80012818:	00000000 	nop
8001281c:	3c028001 	lui	v0,0x8001
80012820:	2444778c 	addiu	a0,v0,30604
80012824:	240500cf 	li	a1,207
80012828:	3c028001 	lui	v0,0x8001
8001282c:	2446779c 	addiu	a2,v0,30620
80012830:	8fc70038 	lw	a3,56(s8)
80012834:	0c00418e 	jal	80010638 <__panic>
80012838:	00000000 	nop
8001283c:	8fc30038 	lw	v1,56(s8)
80012840:	3c028000 	lui	v0,0x8000
80012844:	00621021 	addu	v0,v1,v0
80012848:	afc20040 	sw	v0,64(s8)
8001284c:	8fc20040 	lw	v0,64(s8)
80012850:	24420fff 	addiu	v0,v0,4095
80012854:	afc20020 	sw	v0,32(s8)
80012858:	8fc30020 	lw	v1,32(s8)
8001285c:	2402f000 	li	v0,-4096
80012860:	00621024 	and	v0,v1,v0
80012864:	afc20030 	sw	v0,48(s8)
80012868:	afc00034 	sw	zero,52(s8)
8001286c:	3c020080 	lui	v0,0x80
80012870:	afc2001c 	sw	v0,28(s8)
80012874:	8fc3001c 	lw	v1,28(s8)
80012878:	2402f000 	li	v0,-4096
8001287c:	00621024 	and	v0,v1,v0
80012880:	afc20028 	sw	v0,40(s8)
80012884:	000217c3 	sra	v0,v0,0x1f
80012888:	afc2002c 	sw	v0,44(s8)
8001288c:	8fc3002c 	lw	v1,44(s8)
80012890:	8fc20034 	lw	v0,52(s8)
80012894:	0043102b 	sltu	v0,v0,v1
80012898:	1440000a 	bnez	v0,800128c4 <page_init+0x1dc>
8001289c:	00000000 	nop
800128a0:	8fc3002c 	lw	v1,44(s8)
800128a4:	8fc20034 	lw	v0,52(s8)
800128a8:	1462001d 	bne	v1,v0,80012920 <page_init+0x238>
800128ac:	00000000 	nop
800128b0:	8fc30028 	lw	v1,40(s8)
800128b4:	8fc20030 	lw	v0,48(s8)
800128b8:	0043102b 	sltu	v0,v0,v1
800128bc:	10400018 	beqz	v0,80012920 <page_init+0x238>
800128c0:	00000000 	nop
800128c4:	8fc20030 	lw	v0,48(s8)
800128c8:	00402021 	move	a0,v0
800128cc:	0c00489e 	jal	80012278 <pa2page>
800128d0:	00000000 	nop
800128d4:	00404021 	move	t0,v0
800128d8:	8fc40028 	lw	a0,40(s8)
800128dc:	8fc5002c 	lw	a1,44(s8)
800128e0:	8fc60030 	lw	a2,48(s8)
800128e4:	8fc70034 	lw	a3,52(s8)
800128e8:	00861023 	subu	v0,a0,a2
800128ec:	0082482b 	sltu	t1,a0,v0
800128f0:	00a71823 	subu	v1,a1,a3
800128f4:	00692023 	subu	a0,v1,t1
800128f8:	00801821 	move	v1,a0
800128fc:	00032500 	sll	a0,v1,0x14
80012900:	00028302 	srl	s0,v0,0xc
80012904:	00908025 	or	s0,a0,s0
80012908:	00038b02 	srl	s1,v1,0xc
8001290c:	02001021 	move	v0,s0
80012910:	01002021 	move	a0,t0
80012914:	00402821 	move	a1,v0
80012918:	0c00495d 	jal	80012574 <init_memmap>
8001291c:	00000000 	nop
80012920:	03c0e821 	move	sp,s8
80012924:	8fbf005c 	lw	ra,92(sp)
80012928:	8fbe0058 	lw	s8,88(sp)
8001292c:	8fb10054 	lw	s1,84(sp)
80012930:	8fb00050 	lw	s0,80(sp)
80012934:	27bd0060 	addiu	sp,sp,96
80012938:	03e00008 	jr	ra
8001293c:	00000000 	nop

80012940 <enable_paging>:
80012940:	27bdfff8 	addiu	sp,sp,-8
80012944:	afbe0004 	sw	s8,4(sp)
80012948:	03a0f021 	move	s8,sp
8001294c:	03c0e821 	move	sp,s8
80012950:	8fbe0004 	lw	s8,4(sp)
80012954:	27bd0008 	addiu	sp,sp,8
80012958:	03e00008 	jr	ra
8001295c:	00000000 	nop

80012960 <boot_map_segment>:
80012960:	27bdffd0 	addiu	sp,sp,-48
80012964:	afbf002c 	sw	ra,44(sp)
80012968:	afbe0028 	sw	s8,40(sp)
8001296c:	03a0f021 	move	s8,sp
80012970:	afc40030 	sw	a0,48(s8)
80012974:	afc50034 	sw	a1,52(s8)
80012978:	afc60038 	sw	a2,56(s8)
8001297c:	afc7003c 	sw	a3,60(s8)
80012980:	8fc30034 	lw	v1,52(s8)
80012984:	8fc2003c 	lw	v0,60(s8)
80012988:	00621026 	xor	v0,v1,v0
8001298c:	30420fff 	andi	v0,v0,0xfff
80012990:	1040000a 	beqz	v0,800129bc <boot_map_segment+0x5c>
80012994:	00000000 	nop
80012998:	3c028001 	lui	v0,0x8001
8001299c:	2444778c 	addiu	a0,v0,30604
800129a0:	240500ec 	li	a1,236
800129a4:	3c028001 	lui	v0,0x8001
800129a8:	244677c0 	addiu	a2,v0,30656
800129ac:	3c028001 	lui	v0,0x8001
800129b0:	244777d8 	addiu	a3,v0,30680
800129b4:	0c00418e 	jal	80010638 <__panic>
800129b8:	00000000 	nop
800129bc:	8fc20034 	lw	v0,52(s8)
800129c0:	30430fff 	andi	v1,v0,0xfff
800129c4:	8fc20038 	lw	v0,56(s8)
800129c8:	00621021 	addu	v0,v1,v0
800129cc:	24420fff 	addiu	v0,v0,4095
800129d0:	afc2001c 	sw	v0,28(s8)
800129d4:	8fc3001c 	lw	v1,28(s8)
800129d8:	2402f000 	li	v0,-4096
800129dc:	00621024 	and	v0,v1,v0
800129e0:	00021302 	srl	v0,v0,0xc
800129e4:	afc20020 	sw	v0,32(s8)
800129e8:	8fc20034 	lw	v0,52(s8)
800129ec:	afc20018 	sw	v0,24(s8)
800129f0:	8fc30018 	lw	v1,24(s8)
800129f4:	2402f000 	li	v0,-4096
800129f8:	00621024 	and	v0,v1,v0
800129fc:	afc20034 	sw	v0,52(s8)
80012a00:	8fc2003c 	lw	v0,60(s8)
80012a04:	afc20014 	sw	v0,20(s8)
80012a08:	8fc30014 	lw	v1,20(s8)
80012a0c:	2402f000 	li	v0,-4096
80012a10:	00621024 	and	v0,v1,v0
80012a14:	afc2003c 	sw	v0,60(s8)
80012a18:	08004aa9 	j	80012aa4 <boot_map_segment+0x144>
80012a1c:	00000000 	nop
80012a20:	8fc40030 	lw	a0,48(s8)
80012a24:	8fc50034 	lw	a1,52(s8)
80012a28:	24060001 	li	a2,1
80012a2c:	0c004b0a 	jal	80012c28 <get_pte>
80012a30:	00000000 	nop
80012a34:	afc20010 	sw	v0,16(s8)
80012a38:	8fc20010 	lw	v0,16(s8)
80012a3c:	1440000a 	bnez	v0,80012a68 <boot_map_segment+0x108>
80012a40:	00000000 	nop
80012a44:	3c028001 	lui	v0,0x8001
80012a48:	2444778c 	addiu	a0,v0,30604
80012a4c:	240500f2 	li	a1,242
80012a50:	3c028001 	lui	v0,0x8001
80012a54:	244677c0 	addiu	a2,v0,30656
80012a58:	3c028001 	lui	v0,0x8001
80012a5c:	244777f0 	addiu	a3,v0,30704
80012a60:	0c00418e 	jal	80010638 <__panic>
80012a64:	00000000 	nop
80012a68:	8fc3003c 	lw	v1,60(s8)
80012a6c:	8fc20040 	lw	v0,64(s8)
80012a70:	00621025 	or	v0,v1,v0
80012a74:	34430001 	ori	v1,v0,0x1
80012a78:	8fc20010 	lw	v0,16(s8)
80012a7c:	ac430000 	sw	v1,0(v0)
80012a80:	8fc20020 	lw	v0,32(s8)
80012a84:	2442ffff 	addiu	v0,v0,-1
80012a88:	afc20020 	sw	v0,32(s8)
80012a8c:	8fc20034 	lw	v0,52(s8)
80012a90:	24421000 	addiu	v0,v0,4096
80012a94:	afc20034 	sw	v0,52(s8)
80012a98:	8fc2003c 	lw	v0,60(s8)
80012a9c:	24421000 	addiu	v0,v0,4096
80012aa0:	afc2003c 	sw	v0,60(s8)
80012aa4:	8fc20020 	lw	v0,32(s8)
80012aa8:	1440ffdd 	bnez	v0,80012a20 <boot_map_segment+0xc0>
80012aac:	00000000 	nop
80012ab0:	03c0e821 	move	sp,s8
80012ab4:	8fbf002c 	lw	ra,44(sp)
80012ab8:	8fbe0028 	lw	s8,40(sp)
80012abc:	27bd0030 	addiu	sp,sp,48
80012ac0:	03e00008 	jr	ra
80012ac4:	00000000 	nop

80012ac8 <boot_alloc_page>:
80012ac8:	27bdffe0 	addiu	sp,sp,-32
80012acc:	afbf001c 	sw	ra,28(sp)
80012ad0:	afbe0018 	sw	s8,24(sp)
80012ad4:	03a0f021 	move	s8,sp
80012ad8:	24040001 	li	a0,1
80012adc:	0c004970 	jal	800125c0 <alloc_pages>
80012ae0:	00000000 	nop
80012ae4:	afc20010 	sw	v0,16(s8)
80012ae8:	8fc20010 	lw	v0,16(s8)
80012aec:	14400008 	bnez	v0,80012b10 <boot_alloc_page+0x48>
80012af0:	00000000 	nop
80012af4:	3c028001 	lui	v0,0x8001
80012af8:	2444778c 	addiu	a0,v0,30604
80012afc:	240500fe 	li	a1,254
80012b00:	3c028001 	lui	v0,0x8001
80012b04:	24467800 	addiu	a2,v0,30720
80012b08:	0c00418e 	jal	80010638 <__panic>
80012b0c:	00000000 	nop
80012b10:	8fc40010 	lw	a0,16(s8)
80012b14:	0c0048bf 	jal	800122fc <page2kva>
80012b18:	00000000 	nop
80012b1c:	03c0e821 	move	sp,s8
80012b20:	8fbf001c 	lw	ra,28(sp)
80012b24:	8fbe0018 	lw	s8,24(sp)
80012b28:	27bd0020 	addiu	sp,sp,32
80012b2c:	03e00008 	jr	ra
80012b30:	00000000 	nop

80012b34 <pmm_init>:
80012b34:	27bdffe0 	addiu	sp,sp,-32
80012b38:	afbf001c 	sw	ra,28(sp)
80012b3c:	afbe0018 	sw	s8,24(sp)
80012b40:	03a0f021 	move	s8,sp
80012b44:	0c004942 	jal	80012508 <init_pmm_manager>
80012b48:	00000000 	nop
80012b4c:	0c0049ba 	jal	800126e8 <page_init>
80012b50:	00000000 	nop
80012b54:	0c004c33 	jal	800130cc <check_alloc_page>
80012b58:	00000000 	nop
80012b5c:	0c004ab2 	jal	80012ac8 <boot_alloc_page>
80012b60:	00000000 	nop
80012b64:	00401821 	move	v1,v0
80012b68:	3c028002 	lui	v0,0x8002
80012b6c:	ac435648 	sw	v1,22088(v0)
80012b70:	3c028002 	lui	v0,0x8002
80012b74:	8c425648 	lw	v0,22088(v0)
80012b78:	00402021 	move	a0,v0
80012b7c:	00002821 	move	a1,zero
80012b80:	24061000 	li	a2,4096
80012b84:	0c005864 	jal	80016190 <memset>
80012b88:	00000000 	nop
80012b8c:	0c004c46 	jal	80013118 <check_pgdir>
80012b90:	00000000 	nop
80012b94:	3c028002 	lui	v0,0x8002
80012b98:	8c425648 	lw	v0,22088(v0)
80012b9c:	24420fac 	addiu	v0,v0,4012
80012ba0:	3c038002 	lui	v1,0x8002
80012ba4:	8c635648 	lw	v1,22088(v1)
80012ba8:	afc30010 	sw	v1,16(s8)
80012bac:	8fc30010 	lw	v1,16(s8)
80012bb0:	04600009 	bltz	v1,80012bd8 <pmm_init+0xa4>
80012bb4:	00000000 	nop
80012bb8:	3c028001 	lui	v0,0x8001
80012bbc:	2444778c 	addiu	a0,v0,30604
80012bc0:	24050120 	li	a1,288
80012bc4:	3c028001 	lui	v0,0x8001
80012bc8:	2446779c 	addiu	a2,v0,30620
80012bcc:	8fc70010 	lw	a3,16(s8)
80012bd0:	0c00418e 	jal	80010638 <__panic>
80012bd4:	00000000 	nop
80012bd8:	8fc40010 	lw	a0,16(s8)
80012bdc:	3c038000 	lui	v1,0x8000
80012be0:	00831821 	addu	v1,a0,v1
80012be4:	34630003 	ori	v1,v1,0x3
80012be8:	ac430000 	sw	v1,0(v0)
80012bec:	0c004a50 	jal	80012940 <enable_paging>
80012bf0:	00000000 	nop
80012bf4:	3c028002 	lui	v0,0x8002
80012bf8:	8c425028 	lw	v0,20520(v0)
80012bfc:	00402021 	move	a0,v0
80012c00:	0c004936 	jal	800124d8 <load_ksp>
80012c04:	00000000 	nop
80012c08:	0c004e37 	jal	800138dc <check_boot_pgdir>
80012c0c:	00000000 	nop
80012c10:	03c0e821 	move	sp,s8
80012c14:	8fbf001c 	lw	ra,28(sp)
80012c18:	8fbe0018 	lw	s8,24(sp)
80012c1c:	27bd0020 	addiu	sp,sp,32
80012c20:	03e00008 	jr	ra
80012c24:	00000000 	nop

80012c28 <get_pte>:
80012c28:	27bdffc8 	addiu	sp,sp,-56
80012c2c:	afbf0034 	sw	ra,52(sp)
80012c30:	afbe0030 	sw	s8,48(sp)
80012c34:	03a0f021 	move	s8,sp
80012c38:	afc40038 	sw	a0,56(s8)
80012c3c:	afc5003c 	sw	a1,60(s8)
80012c40:	afc60040 	sw	a2,64(s8)
80012c44:	8fc2003c 	lw	v0,60(s8)
80012c48:	00021582 	srl	v0,v0,0x16
80012c4c:	00021080 	sll	v0,v0,0x2
80012c50:	8fc30038 	lw	v1,56(s8)
80012c54:	00621021 	addu	v0,v1,v0
80012c58:	afc20028 	sw	v0,40(s8)
80012c5c:	8fc20028 	lw	v0,40(s8)
80012c60:	8c420000 	lw	v0,0(v0)
80012c64:	30420001 	andi	v0,v0,0x1
80012c68:	14400032 	bnez	v0,80012d34 <get_pte+0x10c>
80012c6c:	00000000 	nop
80012c70:	8fc20040 	lw	v0,64(s8)
80012c74:	14400004 	bnez	v0,80012c88 <get_pte+0x60>
80012c78:	00000000 	nop
80012c7c:	00001021 	move	v0,zero
80012c80:	08004b70 	j	80012dc0 <get_pte+0x198>
80012c84:	00000000 	nop
80012c88:	24040001 	li	a0,1
80012c8c:	0c004970 	jal	800125c0 <alloc_pages>
80012c90:	00000000 	nop
80012c94:	afc20020 	sw	v0,32(s8)
80012c98:	8fc40020 	lw	a0,32(s8)
80012c9c:	24050001 	li	a1,1
80012ca0:	0c004909 	jal	80012424 <set_page_ref>
80012ca4:	00000000 	nop
80012ca8:	8fc40020 	lw	a0,32(s8)
80012cac:	0c00488f 	jal	8001223c <page2pa>
80012cb0:	00000000 	nop
80012cb4:	34430007 	ori	v1,v0,0x7
80012cb8:	8fc20028 	lw	v0,40(s8)
80012cbc:	ac430000 	sw	v1,0(v0)
80012cc0:	8fc40020 	lw	a0,32(s8)
80012cc4:	0c00488f 	jal	8001223c <page2pa>
80012cc8:	00000000 	nop
80012ccc:	afc2001c 	sw	v0,28(s8)
80012cd0:	8fc2001c 	lw	v0,28(s8)
80012cd4:	00021302 	srl	v0,v0,0xc
80012cd8:	afc20018 	sw	v0,24(s8)
80012cdc:	3c028002 	lui	v0,0x8002
80012ce0:	8c425644 	lw	v0,22084(v0)
80012ce4:	8fc30018 	lw	v1,24(s8)
80012ce8:	0062102b 	sltu	v0,v1,v0
80012cec:	14400009 	bnez	v0,80012d14 <get_pte+0xec>
80012cf0:	00000000 	nop
80012cf4:	3c028001 	lui	v0,0x8001
80012cf8:	2444778c 	addiu	a0,v0,30604
80012cfc:	24050172 	li	a1,370
80012d00:	3c028001 	lui	v0,0x8001
80012d04:	24467724 	addiu	a2,v0,30500
80012d08:	8fc7001c 	lw	a3,28(s8)
80012d0c:	0c00418e 	jal	80010638 <__panic>
80012d10:	00000000 	nop
80012d14:	8fc3001c 	lw	v1,28(s8)
80012d18:	3c028000 	lui	v0,0x8000
80012d1c:	00621021 	addu	v0,v1,v0
80012d20:	00402021 	move	a0,v0
80012d24:	00002821 	move	a1,zero
80012d28:	24061000 	li	a2,4096
80012d2c:	0c005864 	jal	80016190 <memset>
80012d30:	00000000 	nop
80012d34:	8fc20028 	lw	v0,40(s8)
80012d38:	8c430000 	lw	v1,0(v0)
80012d3c:	2402f000 	li	v0,-4096
80012d40:	00621024 	and	v0,v1,v0
80012d44:	afc20014 	sw	v0,20(s8)
80012d48:	8fc20014 	lw	v0,20(s8)
80012d4c:	00021302 	srl	v0,v0,0xc
80012d50:	afc20010 	sw	v0,16(s8)
80012d54:	3c028002 	lui	v0,0x8002
80012d58:	8c425644 	lw	v0,22084(v0)
80012d5c:	8fc30010 	lw	v1,16(s8)
80012d60:	0062102b 	sltu	v0,v1,v0
80012d64:	14400009 	bnez	v0,80012d8c <get_pte+0x164>
80012d68:	00000000 	nop
80012d6c:	3c028001 	lui	v0,0x8001
80012d70:	2444778c 	addiu	a0,v0,30604
80012d74:	24050174 	li	a1,372
80012d78:	3c028001 	lui	v0,0x8001
80012d7c:	24467724 	addiu	a2,v0,30500
80012d80:	8fc70014 	lw	a3,20(s8)
80012d84:	0c00418e 	jal	80010638 <__panic>
80012d88:	00000000 	nop
80012d8c:	8fc30014 	lw	v1,20(s8)
80012d90:	3c028000 	lui	v0,0x8000
80012d94:	00621021 	addu	v0,v1,v0
80012d98:	00401821 	move	v1,v0
80012d9c:	8fc4003c 	lw	a0,60(s8)
80012da0:	3c02003f 	lui	v0,0x3f
80012da4:	3442f000 	ori	v0,v0,0xf000
80012da8:	00821024 	and	v0,a0,v0
80012dac:	00021302 	srl	v0,v0,0xc
80012db0:	00021080 	sll	v0,v0,0x2
80012db4:	00621021 	addu	v0,v1,v0
80012db8:	afc20024 	sw	v0,36(s8)
80012dbc:	8fc20024 	lw	v0,36(s8)
80012dc0:	03c0e821 	move	sp,s8
80012dc4:	8fbf0034 	lw	ra,52(sp)
80012dc8:	8fbe0030 	lw	s8,48(sp)
80012dcc:	27bd0038 	addiu	sp,sp,56
80012dd0:	03e00008 	jr	ra
80012dd4:	00000000 	nop

80012dd8 <get_page>:
80012dd8:	27bdffe0 	addiu	sp,sp,-32
80012ddc:	afbf001c 	sw	ra,28(sp)
80012de0:	afbe0018 	sw	s8,24(sp)
80012de4:	03a0f021 	move	s8,sp
80012de8:	afc40020 	sw	a0,32(s8)
80012dec:	afc50024 	sw	a1,36(s8)
80012df0:	afc60028 	sw	a2,40(s8)
80012df4:	8fc40020 	lw	a0,32(s8)
80012df8:	8fc50024 	lw	a1,36(s8)
80012dfc:	00003021 	move	a2,zero
80012e00:	0c004b0a 	jal	80012c28 <get_pte>
80012e04:	00000000 	nop
80012e08:	afc20010 	sw	v0,16(s8)
80012e0c:	8fc20028 	lw	v0,40(s8)
80012e10:	10400004 	beqz	v0,80012e24 <get_page+0x4c>
80012e14:	00000000 	nop
80012e18:	8fc20028 	lw	v0,40(s8)
80012e1c:	8fc30010 	lw	v1,16(s8)
80012e20:	ac430000 	sw	v1,0(v0)
80012e24:	8fc20010 	lw	v0,16(s8)
80012e28:	1040000e 	beqz	v0,80012e64 <get_page+0x8c>
80012e2c:	00000000 	nop
80012e30:	8fc20010 	lw	v0,16(s8)
80012e34:	8c420000 	lw	v0,0(v0)
80012e38:	30420001 	andi	v0,v0,0x1
80012e3c:	304200ff 	andi	v0,v0,0xff
80012e40:	10400008 	beqz	v0,80012e64 <get_page+0x8c>
80012e44:	00000000 	nop
80012e48:	8fc20010 	lw	v0,16(s8)
80012e4c:	8c420000 	lw	v0,0(v0)
80012e50:	00402021 	move	a0,v0
80012e54:	0c00489e 	jal	80012278 <pa2page>
80012e58:	00000000 	nop
80012e5c:	08004b9a 	j	80012e68 <get_page+0x90>
80012e60:	00000000 	nop
80012e64:	00001021 	move	v0,zero
80012e68:	03c0e821 	move	sp,s8
80012e6c:	8fbf001c 	lw	ra,28(sp)
80012e70:	8fbe0018 	lw	s8,24(sp)
80012e74:	27bd0020 	addiu	sp,sp,32
80012e78:	03e00008 	jr	ra
80012e7c:	00000000 	nop

80012e80 <page_remove_pte>:
80012e80:	27bdffe0 	addiu	sp,sp,-32
80012e84:	afbf001c 	sw	ra,28(sp)
80012e88:	afbe0018 	sw	s8,24(sp)
80012e8c:	03a0f021 	move	s8,sp
80012e90:	afc40020 	sw	a0,32(s8)
80012e94:	afc50024 	sw	a1,36(s8)
80012e98:	afc60028 	sw	a2,40(s8)
80012e9c:	8fc20028 	lw	v0,40(s8)
80012ea0:	8c420000 	lw	v0,0(v0)
80012ea4:	30420001 	andi	v0,v0,0x1
80012ea8:	304200ff 	andi	v0,v0,0xff
80012eac:	10400018 	beqz	v0,80012f10 <page_remove_pte+0x90>
80012eb0:	00000000 	nop
80012eb4:	8fc20028 	lw	v0,40(s8)
80012eb8:	8c420000 	lw	v0,0(v0)
80012ebc:	00402021 	move	a0,v0
80012ec0:	0c0048e2 	jal	80012388 <pte2page>
80012ec4:	00000000 	nop
80012ec8:	afc20010 	sw	v0,16(s8)
80012ecc:	8fc40010 	lw	a0,16(s8)
80012ed0:	0c004926 	jal	80012498 <page_ref_dec>
80012ed4:	00000000 	nop
80012ed8:	8fc20010 	lw	v0,16(s8)
80012edc:	8c420000 	lw	v0,0(v0)
80012ee0:	14400005 	bnez	v0,80012ef8 <page_remove_pte+0x78>
80012ee4:	00000000 	nop
80012ee8:	8fc40010 	lw	a0,16(s8)
80012eec:	24050001 	li	a1,1
80012ef0:	0c00498a 	jal	80012628 <free_pages>
80012ef4:	00000000 	nop
80012ef8:	8fc20028 	lw	v0,40(s8)
80012efc:	ac400000 	sw	zero,0(v0)
80012f00:	8fc40020 	lw	a0,32(s8)
80012f04:	8fc50024 	lw	a1,36(s8)
80012f08:	0c004c29 	jal	800130a4 <tlb_invalidate>
80012f0c:	00000000 	nop
80012f10:	03c0e821 	move	sp,s8
80012f14:	8fbf001c 	lw	ra,28(sp)
80012f18:	8fbe0018 	lw	s8,24(sp)
80012f1c:	27bd0020 	addiu	sp,sp,32
80012f20:	03e00008 	jr	ra
80012f24:	00000000 	nop

80012f28 <page_remove>:
80012f28:	27bdffe0 	addiu	sp,sp,-32
80012f2c:	afbf001c 	sw	ra,28(sp)
80012f30:	afbe0018 	sw	s8,24(sp)
80012f34:	03a0f021 	move	s8,sp
80012f38:	afc40020 	sw	a0,32(s8)
80012f3c:	afc50024 	sw	a1,36(s8)
80012f40:	8fc40020 	lw	a0,32(s8)
80012f44:	8fc50024 	lw	a1,36(s8)
80012f48:	00003021 	move	a2,zero
80012f4c:	0c004b0a 	jal	80012c28 <get_pte>
80012f50:	00000000 	nop
80012f54:	afc20010 	sw	v0,16(s8)
80012f58:	8fc20010 	lw	v0,16(s8)
80012f5c:	10400006 	beqz	v0,80012f78 <page_remove+0x50>
80012f60:	00000000 	nop
80012f64:	8fc40020 	lw	a0,32(s8)
80012f68:	8fc50024 	lw	a1,36(s8)
80012f6c:	8fc60010 	lw	a2,16(s8)
80012f70:	0c004ba0 	jal	80012e80 <page_remove_pte>
80012f74:	00000000 	nop
80012f78:	03c0e821 	move	sp,s8
80012f7c:	8fbf001c 	lw	ra,28(sp)
80012f80:	8fbe0018 	lw	s8,24(sp)
80012f84:	27bd0020 	addiu	sp,sp,32
80012f88:	03e00008 	jr	ra
80012f8c:	00000000 	nop

80012f90 <page_insert>:
80012f90:	27bdffe0 	addiu	sp,sp,-32
80012f94:	afbf001c 	sw	ra,28(sp)
80012f98:	afbe0018 	sw	s8,24(sp)
80012f9c:	03a0f021 	move	s8,sp
80012fa0:	afc40020 	sw	a0,32(s8)
80012fa4:	afc50024 	sw	a1,36(s8)
80012fa8:	afc60028 	sw	a2,40(s8)
80012fac:	afc7002c 	sw	a3,44(s8)
80012fb0:	8fc40020 	lw	a0,32(s8)
80012fb4:	8fc50028 	lw	a1,40(s8)
80012fb8:	24060001 	li	a2,1
80012fbc:	0c004b0a 	jal	80012c28 <get_pte>
80012fc0:	00000000 	nop
80012fc4:	afc20014 	sw	v0,20(s8)
80012fc8:	8fc20014 	lw	v0,20(s8)
80012fcc:	14400004 	bnez	v0,80012fe0 <page_insert+0x50>
80012fd0:	00000000 	nop
80012fd4:	2402fffc 	li	v0,-4
80012fd8:	08004c23 	j	8001308c <page_insert+0xfc>
80012fdc:	00000000 	nop
80012fe0:	8fc40024 	lw	a0,36(s8)
80012fe4:	0c004916 	jal	80012458 <page_ref_inc>
80012fe8:	00000000 	nop
80012fec:	8fc20014 	lw	v0,20(s8)
80012ff0:	8c420000 	lw	v0,0(v0)
80012ff4:	30420001 	andi	v0,v0,0x1
80012ff8:	304200ff 	andi	v0,v0,0xff
80012ffc:	10400015 	beqz	v0,80013054 <page_insert+0xc4>
80013000:	00000000 	nop
80013004:	8fc20014 	lw	v0,20(s8)
80013008:	8c420000 	lw	v0,0(v0)
8001300c:	00402021 	move	a0,v0
80013010:	0c0048e2 	jal	80012388 <pte2page>
80013014:	00000000 	nop
80013018:	afc20010 	sw	v0,16(s8)
8001301c:	8fc30010 	lw	v1,16(s8)
80013020:	8fc20024 	lw	v0,36(s8)
80013024:	14620006 	bne	v1,v0,80013040 <page_insert+0xb0>
80013028:	00000000 	nop
8001302c:	8fc40024 	lw	a0,36(s8)
80013030:	0c004926 	jal	80012498 <page_ref_dec>
80013034:	00000000 	nop
80013038:	08004c15 	j	80013054 <page_insert+0xc4>
8001303c:	00000000 	nop
80013040:	8fc40020 	lw	a0,32(s8)
80013044:	8fc50028 	lw	a1,40(s8)
80013048:	8fc60014 	lw	a2,20(s8)
8001304c:	0c004ba0 	jal	80012e80 <page_remove_pte>
80013050:	00000000 	nop
80013054:	8fc40024 	lw	a0,36(s8)
80013058:	0c00488f 	jal	8001223c <page2pa>
8001305c:	00000000 	nop
80013060:	00401821 	move	v1,v0
80013064:	8fc2002c 	lw	v0,44(s8)
80013068:	00621025 	or	v0,v1,v0
8001306c:	34430001 	ori	v1,v0,0x1
80013070:	8fc20014 	lw	v0,20(s8)
80013074:	ac430000 	sw	v1,0(v0)
80013078:	8fc40020 	lw	a0,32(s8)
8001307c:	8fc50028 	lw	a1,40(s8)
80013080:	0c004c29 	jal	800130a4 <tlb_invalidate>
80013084:	00000000 	nop
80013088:	00001021 	move	v0,zero
8001308c:	03c0e821 	move	sp,s8
80013090:	8fbf001c 	lw	ra,28(sp)
80013094:	8fbe0018 	lw	s8,24(sp)
80013098:	27bd0020 	addiu	sp,sp,32
8001309c:	03e00008 	jr	ra
800130a0:	00000000 	nop

800130a4 <tlb_invalidate>:
800130a4:	27bdfff8 	addiu	sp,sp,-8
800130a8:	afbe0004 	sw	s8,4(sp)
800130ac:	03a0f021 	move	s8,sp
800130b0:	afc40008 	sw	a0,8(s8)
800130b4:	afc5000c 	sw	a1,12(s8)
800130b8:	03c0e821 	move	sp,s8
800130bc:	8fbe0004 	lw	s8,4(sp)
800130c0:	27bd0008 	addiu	sp,sp,8
800130c4:	03e00008 	jr	ra
800130c8:	00000000 	nop

800130cc <check_alloc_page>:
800130cc:	27bdffe8 	addiu	sp,sp,-24
800130d0:	afbf0014 	sw	ra,20(sp)
800130d4:	afbe0010 	sw	s8,16(sp)
800130d8:	03a0f021 	move	s8,sp
800130dc:	3c028002 	lui	v0,0x8002
800130e0:	8c425664 	lw	v0,22116(v0)
800130e4:	8c420018 	lw	v0,24(v0)
800130e8:	0040f809 	jalr	v0
800130ec:	00000000 	nop
800130f0:	3c028001 	lui	v0,0x8001
800130f4:	2444781c 	addiu	a0,v0,30748
800130f8:	0c0040d7 	jal	8001035c <cprintf>
800130fc:	00000000 	nop
80013100:	03c0e821 	move	sp,s8
80013104:	8fbf0014 	lw	ra,20(sp)
80013108:	8fbe0010 	lw	s8,16(sp)
8001310c:	27bd0018 	addiu	sp,sp,24
80013110:	03e00008 	jr	ra
80013114:	00000000 	nop

80013118 <check_pgdir>:
80013118:	27bdffd0 	addiu	sp,sp,-48
8001311c:	afbf002c 	sw	ra,44(sp)
80013120:	afbe0028 	sw	s8,40(sp)
80013124:	03a0f021 	move	s8,sp
80013128:	3c028002 	lui	v0,0x8002
8001312c:	8c425644 	lw	v0,22084(v0)
80013130:	2c420801 	sltiu	v0,v0,2049
80013134:	1440000a 	bnez	v0,80013160 <check_pgdir+0x48>
80013138:	00000000 	nop
8001313c:	3c028001 	lui	v0,0x8001
80013140:	2444778c 	addiu	a0,v0,30604
80013144:	240501e7 	li	a1,487
80013148:	3c028001 	lui	v0,0x8001
8001314c:	244677c0 	addiu	a2,v0,30656
80013150:	3c028001 	lui	v0,0x8001
80013154:	2447783c 	addiu	a3,v0,30780
80013158:	0c00418e 	jal	80010638 <__panic>
8001315c:	00000000 	nop
80013160:	3c028002 	lui	v0,0x8002
80013164:	8c425648 	lw	v0,22088(v0)
80013168:	10400006 	beqz	v0,80013184 <check_pgdir+0x6c>
8001316c:	00000000 	nop
80013170:	3c028002 	lui	v0,0x8002
80013174:	8c425648 	lw	v0,22088(v0)
80013178:	30420fff 	andi	v0,v0,0xfff
8001317c:	1040000a 	beqz	v0,800131a8 <check_pgdir+0x90>
80013180:	00000000 	nop
80013184:	3c028001 	lui	v0,0x8001
80013188:	2444778c 	addiu	a0,v0,30604
8001318c:	240501e8 	li	a1,488
80013190:	3c028001 	lui	v0,0x8001
80013194:	244677c0 	addiu	a2,v0,30656
80013198:	3c028001 	lui	v0,0x8001
8001319c:	24477858 	addiu	a3,v0,30808
800131a0:	0c00418e 	jal	80010638 <__panic>
800131a4:	00000000 	nop
800131a8:	3c028002 	lui	v0,0x8002
800131ac:	8c425648 	lw	v0,22088(v0)
800131b0:	00402021 	move	a0,v0
800131b4:	00002821 	move	a1,zero
800131b8:	00003021 	move	a2,zero
800131bc:	0c004b76 	jal	80012dd8 <get_page>
800131c0:	00000000 	nop
800131c4:	1040000a 	beqz	v0,800131f0 <check_pgdir+0xd8>
800131c8:	00000000 	nop
800131cc:	3c028001 	lui	v0,0x8001
800131d0:	2444778c 	addiu	a0,v0,30604
800131d4:	240501e9 	li	a1,489
800131d8:	3c028001 	lui	v0,0x8001
800131dc:	244677c0 	addiu	a2,v0,30656
800131e0:	3c028001 	lui	v0,0x8001
800131e4:	24477890 	addiu	a3,v0,30864
800131e8:	0c00418e 	jal	80010638 <__panic>
800131ec:	00000000 	nop
800131f0:	24040001 	li	a0,1
800131f4:	0c004970 	jal	800125c0 <alloc_pages>
800131f8:	00000000 	nop
800131fc:	afc20020 	sw	v0,32(s8)
80013200:	3c028002 	lui	v0,0x8002
80013204:	8c425648 	lw	v0,22088(v0)
80013208:	00402021 	move	a0,v0
8001320c:	8fc50020 	lw	a1,32(s8)
80013210:	00003021 	move	a2,zero
80013214:	00003821 	move	a3,zero
80013218:	0c004be4 	jal	80012f90 <page_insert>
8001321c:	00000000 	nop
80013220:	1040000a 	beqz	v0,8001324c <check_pgdir+0x134>
80013224:	00000000 	nop
80013228:	3c028001 	lui	v0,0x8001
8001322c:	2444778c 	addiu	a0,v0,30604
80013230:	240501ed 	li	a1,493
80013234:	3c028001 	lui	v0,0x8001
80013238:	244677c0 	addiu	a2,v0,30656
8001323c:	3c028001 	lui	v0,0x8001
80013240:	244778b8 	addiu	a3,v0,30904
80013244:	0c00418e 	jal	80010638 <__panic>
80013248:	00000000 	nop
8001324c:	3c028002 	lui	v0,0x8002
80013250:	8c425648 	lw	v0,22088(v0)
80013254:	00402021 	move	a0,v0
80013258:	00002821 	move	a1,zero
8001325c:	00003021 	move	a2,zero
80013260:	0c004b0a 	jal	80012c28 <get_pte>
80013264:	00000000 	nop
80013268:	afc20018 	sw	v0,24(s8)
8001326c:	8fc20018 	lw	v0,24(s8)
80013270:	1440000a 	bnez	v0,8001329c <check_pgdir+0x184>
80013274:	00000000 	nop
80013278:	3c028001 	lui	v0,0x8001
8001327c:	2444778c 	addiu	a0,v0,30604
80013280:	240501f0 	li	a1,496
80013284:	3c028001 	lui	v0,0x8001
80013288:	244677c0 	addiu	a2,v0,30656
8001328c:	3c028001 	lui	v0,0x8001
80013290:	244778e4 	addiu	a3,v0,30948
80013294:	0c00418e 	jal	80010638 <__panic>
80013298:	00000000 	nop
8001329c:	8fc20018 	lw	v0,24(s8)
800132a0:	8c420000 	lw	v0,0(v0)
800132a4:	00402021 	move	a0,v0
800132a8:	0c00489e 	jal	80012278 <pa2page>
800132ac:	00000000 	nop
800132b0:	00401821 	move	v1,v0
800132b4:	8fc20020 	lw	v0,32(s8)
800132b8:	1062000a 	beq	v1,v0,800132e4 <check_pgdir+0x1cc>
800132bc:	00000000 	nop
800132c0:	3c028001 	lui	v0,0x8001
800132c4:	2444778c 	addiu	a0,v0,30604
800132c8:	240501f1 	li	a1,497
800132cc:	3c028001 	lui	v0,0x8001
800132d0:	244677c0 	addiu	a2,v0,30656
800132d4:	3c028001 	lui	v0,0x8001
800132d8:	24477914 	addiu	a3,v0,30996
800132dc:	0c00418e 	jal	80010638 <__panic>
800132e0:	00000000 	nop
800132e4:	8fc40020 	lw	a0,32(s8)
800132e8:	0c0048fe 	jal	800123f8 <page_ref>
800132ec:	00000000 	nop
800132f0:	00401821 	move	v1,v0
800132f4:	24020001 	li	v0,1
800132f8:	1062000a 	beq	v1,v0,80013324 <check_pgdir+0x20c>
800132fc:	00000000 	nop
80013300:	3c028001 	lui	v0,0x8001
80013304:	2444778c 	addiu	a0,v0,30604
80013308:	240501f2 	li	a1,498
8001330c:	3c028001 	lui	v0,0x8001
80013310:	244677c0 	addiu	a2,v0,30656
80013314:	3c028001 	lui	v0,0x8001
80013318:	2447792c 	addiu	a3,v0,31020
8001331c:	0c00418e 	jal	80010638 <__panic>
80013320:	00000000 	nop
80013324:	3c028002 	lui	v0,0x8002
80013328:	8c425648 	lw	v0,22088(v0)
8001332c:	8c430000 	lw	v1,0(v0)
80013330:	2402f000 	li	v0,-4096
80013334:	00621024 	and	v0,v1,v0
80013338:	afc20014 	sw	v0,20(s8)
8001333c:	8fc20014 	lw	v0,20(s8)
80013340:	00021302 	srl	v0,v0,0xc
80013344:	afc20010 	sw	v0,16(s8)
80013348:	3c028002 	lui	v0,0x8002
8001334c:	8c425644 	lw	v0,22084(v0)
80013350:	8fc30010 	lw	v1,16(s8)
80013354:	0062102b 	sltu	v0,v1,v0
80013358:	14400009 	bnez	v0,80013380 <check_pgdir+0x268>
8001335c:	00000000 	nop
80013360:	3c028001 	lui	v0,0x8001
80013364:	2444778c 	addiu	a0,v0,30604
80013368:	240501f4 	li	a1,500
8001336c:	3c028001 	lui	v0,0x8001
80013370:	24467724 	addiu	a2,v0,30500
80013374:	8fc70014 	lw	a3,20(s8)
80013378:	0c00418e 	jal	80010638 <__panic>
8001337c:	00000000 	nop
80013380:	8fc30014 	lw	v1,20(s8)
80013384:	3c028000 	lui	v0,0x8000
80013388:	00621021 	addu	v0,v1,v0
8001338c:	24420004 	addiu	v0,v0,4
80013390:	afc20018 	sw	v0,24(s8)
80013394:	3c028002 	lui	v0,0x8002
80013398:	8c425648 	lw	v0,22088(v0)
8001339c:	00402021 	move	a0,v0
800133a0:	24051000 	li	a1,4096
800133a4:	00003021 	move	a2,zero
800133a8:	0c004b0a 	jal	80012c28 <get_pte>
800133ac:	00000000 	nop
800133b0:	00401821 	move	v1,v0
800133b4:	8fc20018 	lw	v0,24(s8)
800133b8:	1062000a 	beq	v1,v0,800133e4 <check_pgdir+0x2cc>
800133bc:	00000000 	nop
800133c0:	3c028001 	lui	v0,0x8001
800133c4:	2444778c 	addiu	a0,v0,30604
800133c8:	240501f5 	li	a1,501
800133cc:	3c028001 	lui	v0,0x8001
800133d0:	244677c0 	addiu	a2,v0,30656
800133d4:	3c028001 	lui	v0,0x8001
800133d8:	24477940 	addiu	a3,v0,31040
800133dc:	0c00418e 	jal	80010638 <__panic>
800133e0:	00000000 	nop
800133e4:	24040001 	li	a0,1
800133e8:	0c004970 	jal	800125c0 <alloc_pages>
800133ec:	00000000 	nop
800133f0:	afc2001c 	sw	v0,28(s8)
800133f4:	3c028002 	lui	v0,0x8002
800133f8:	8c425648 	lw	v0,22088(v0)
800133fc:	00402021 	move	a0,v0
80013400:	8fc5001c 	lw	a1,28(s8)
80013404:	24061000 	li	a2,4096
80013408:	24070006 	li	a3,6
8001340c:	0c004be4 	jal	80012f90 <page_insert>
80013410:	00000000 	nop
80013414:	1040000a 	beqz	v0,80013440 <check_pgdir+0x328>
80013418:	00000000 	nop
8001341c:	3c028001 	lui	v0,0x8001
80013420:	2444778c 	addiu	a0,v0,30604
80013424:	240501f8 	li	a1,504
80013428:	3c028001 	lui	v0,0x8001
8001342c:	244677c0 	addiu	a2,v0,30656
80013430:	3c028001 	lui	v0,0x8001
80013434:	24477968 	addiu	a3,v0,31080
80013438:	0c00418e 	jal	80010638 <__panic>
8001343c:	00000000 	nop
80013440:	3c028002 	lui	v0,0x8002
80013444:	8c425648 	lw	v0,22088(v0)
80013448:	00402021 	move	a0,v0
8001344c:	24051000 	li	a1,4096
80013450:	00003021 	move	a2,zero
80013454:	0c004b0a 	jal	80012c28 <get_pte>
80013458:	00000000 	nop
8001345c:	afc20018 	sw	v0,24(s8)
80013460:	8fc20018 	lw	v0,24(s8)
80013464:	1440000a 	bnez	v0,80013490 <check_pgdir+0x378>
80013468:	00000000 	nop
8001346c:	3c028001 	lui	v0,0x8001
80013470:	2444778c 	addiu	a0,v0,30604
80013474:	240501f9 	li	a1,505
80013478:	3c028001 	lui	v0,0x8001
8001347c:	244677c0 	addiu	a2,v0,30656
80013480:	3c028001 	lui	v0,0x8001
80013484:	244779a0 	addiu	a3,v0,31136
80013488:	0c00418e 	jal	80010638 <__panic>
8001348c:	00000000 	nop
80013490:	8fc20018 	lw	v0,24(s8)
80013494:	8c420000 	lw	v0,0(v0)
80013498:	30420004 	andi	v0,v0,0x4
8001349c:	1440000a 	bnez	v0,800134c8 <check_pgdir+0x3b0>
800134a0:	00000000 	nop
800134a4:	3c028001 	lui	v0,0x8001
800134a8:	2444778c 	addiu	a0,v0,30604
800134ac:	240501fa 	li	a1,506
800134b0:	3c028001 	lui	v0,0x8001
800134b4:	244677c0 	addiu	a2,v0,30656
800134b8:	3c028001 	lui	v0,0x8001
800134bc:	244779d0 	addiu	a3,v0,31184
800134c0:	0c00418e 	jal	80010638 <__panic>
800134c4:	00000000 	nop
800134c8:	8fc20018 	lw	v0,24(s8)
800134cc:	8c420000 	lw	v0,0(v0)
800134d0:	30420002 	andi	v0,v0,0x2
800134d4:	1440000a 	bnez	v0,80013500 <check_pgdir+0x3e8>
800134d8:	00000000 	nop
800134dc:	3c028001 	lui	v0,0x8001
800134e0:	2444778c 	addiu	a0,v0,30604
800134e4:	240501fb 	li	a1,507
800134e8:	3c028001 	lui	v0,0x8001
800134ec:	244677c0 	addiu	a2,v0,30656
800134f0:	3c028001 	lui	v0,0x8001
800134f4:	244779e0 	addiu	a3,v0,31200
800134f8:	0c00418e 	jal	80010638 <__panic>
800134fc:	00000000 	nop
80013500:	3c028002 	lui	v0,0x8002
80013504:	8c425648 	lw	v0,22088(v0)
80013508:	8c420000 	lw	v0,0(v0)
8001350c:	30420004 	andi	v0,v0,0x4
80013510:	1440000a 	bnez	v0,8001353c <check_pgdir+0x424>
80013514:	00000000 	nop
80013518:	3c028001 	lui	v0,0x8001
8001351c:	2444778c 	addiu	a0,v0,30604
80013520:	240501fc 	li	a1,508
80013524:	3c028001 	lui	v0,0x8001
80013528:	244677c0 	addiu	a2,v0,30656
8001352c:	3c028001 	lui	v0,0x8001
80013530:	244779f0 	addiu	a3,v0,31216
80013534:	0c00418e 	jal	80010638 <__panic>
80013538:	00000000 	nop
8001353c:	8fc4001c 	lw	a0,28(s8)
80013540:	0c0048fe 	jal	800123f8 <page_ref>
80013544:	00000000 	nop
80013548:	00401821 	move	v1,v0
8001354c:	24020001 	li	v0,1
80013550:	1062000a 	beq	v1,v0,8001357c <check_pgdir+0x464>
80013554:	00000000 	nop
80013558:	3c028001 	lui	v0,0x8001
8001355c:	2444778c 	addiu	a0,v0,30604
80013560:	240501fd 	li	a1,509
80013564:	3c028001 	lui	v0,0x8001
80013568:	244677c0 	addiu	a2,v0,30656
8001356c:	3c028001 	lui	v0,0x8001
80013570:	24477a08 	addiu	a3,v0,31240
80013574:	0c00418e 	jal	80010638 <__panic>
80013578:	00000000 	nop
8001357c:	3c028002 	lui	v0,0x8002
80013580:	8c425648 	lw	v0,22088(v0)
80013584:	00402021 	move	a0,v0
80013588:	8fc50020 	lw	a1,32(s8)
8001358c:	24061000 	li	a2,4096
80013590:	00003821 	move	a3,zero
80013594:	0c004be4 	jal	80012f90 <page_insert>
80013598:	00000000 	nop
8001359c:	1040000a 	beqz	v0,800135c8 <check_pgdir+0x4b0>
800135a0:	00000000 	nop
800135a4:	3c028001 	lui	v0,0x8001
800135a8:	2444778c 	addiu	a0,v0,30604
800135ac:	240501ff 	li	a1,511
800135b0:	3c028001 	lui	v0,0x8001
800135b4:	244677c0 	addiu	a2,v0,30656
800135b8:	3c028001 	lui	v0,0x8001
800135bc:	24477a1c 	addiu	a3,v0,31260
800135c0:	0c00418e 	jal	80010638 <__panic>
800135c4:	00000000 	nop
800135c8:	8fc40020 	lw	a0,32(s8)
800135cc:	0c0048fe 	jal	800123f8 <page_ref>
800135d0:	00000000 	nop
800135d4:	00401821 	move	v1,v0
800135d8:	24020002 	li	v0,2
800135dc:	1062000a 	beq	v1,v0,80013608 <check_pgdir+0x4f0>
800135e0:	00000000 	nop
800135e4:	3c028001 	lui	v0,0x8001
800135e8:	2444778c 	addiu	a0,v0,30604
800135ec:	24050200 	li	a1,512
800135f0:	3c028001 	lui	v0,0x8001
800135f4:	244677c0 	addiu	a2,v0,30656
800135f8:	3c028001 	lui	v0,0x8001
800135fc:	24477a48 	addiu	a3,v0,31304
80013600:	0c00418e 	jal	80010638 <__panic>
80013604:	00000000 	nop
80013608:	8fc4001c 	lw	a0,28(s8)
8001360c:	0c0048fe 	jal	800123f8 <page_ref>
80013610:	00000000 	nop
80013614:	1040000a 	beqz	v0,80013640 <check_pgdir+0x528>
80013618:	00000000 	nop
8001361c:	3c028001 	lui	v0,0x8001
80013620:	2444778c 	addiu	a0,v0,30604
80013624:	24050201 	li	a1,513
80013628:	3c028001 	lui	v0,0x8001
8001362c:	244677c0 	addiu	a2,v0,30656
80013630:	3c028001 	lui	v0,0x8001
80013634:	24477a5c 	addiu	a3,v0,31324
80013638:	0c00418e 	jal	80010638 <__panic>
8001363c:	00000000 	nop
80013640:	3c028002 	lui	v0,0x8002
80013644:	8c425648 	lw	v0,22088(v0)
80013648:	00402021 	move	a0,v0
8001364c:	24051000 	li	a1,4096
80013650:	00003021 	move	a2,zero
80013654:	0c004b0a 	jal	80012c28 <get_pte>
80013658:	00000000 	nop
8001365c:	afc20018 	sw	v0,24(s8)
80013660:	8fc20018 	lw	v0,24(s8)
80013664:	1440000a 	bnez	v0,80013690 <check_pgdir+0x578>
80013668:	00000000 	nop
8001366c:	3c028001 	lui	v0,0x8001
80013670:	2444778c 	addiu	a0,v0,30604
80013674:	24050202 	li	a1,514
80013678:	3c028001 	lui	v0,0x8001
8001367c:	244677c0 	addiu	a2,v0,30656
80013680:	3c028001 	lui	v0,0x8001
80013684:	244779a0 	addiu	a3,v0,31136
80013688:	0c00418e 	jal	80010638 <__panic>
8001368c:	00000000 	nop
80013690:	8fc20018 	lw	v0,24(s8)
80013694:	8c420000 	lw	v0,0(v0)
80013698:	00402021 	move	a0,v0
8001369c:	0c00489e 	jal	80012278 <pa2page>
800136a0:	00000000 	nop
800136a4:	00401821 	move	v1,v0
800136a8:	8fc20020 	lw	v0,32(s8)
800136ac:	1062000a 	beq	v1,v0,800136d8 <check_pgdir+0x5c0>
800136b0:	00000000 	nop
800136b4:	3c028001 	lui	v0,0x8001
800136b8:	2444778c 	addiu	a0,v0,30604
800136bc:	24050203 	li	a1,515
800136c0:	3c028001 	lui	v0,0x8001
800136c4:	244677c0 	addiu	a2,v0,30656
800136c8:	3c028001 	lui	v0,0x8001
800136cc:	24477914 	addiu	a3,v0,30996
800136d0:	0c00418e 	jal	80010638 <__panic>
800136d4:	00000000 	nop
800136d8:	8fc20018 	lw	v0,24(s8)
800136dc:	8c420000 	lw	v0,0(v0)
800136e0:	30420004 	andi	v0,v0,0x4
800136e4:	1040000a 	beqz	v0,80013710 <check_pgdir+0x5f8>
800136e8:	00000000 	nop
800136ec:	3c028001 	lui	v0,0x8001
800136f0:	2444778c 	addiu	a0,v0,30604
800136f4:	24050204 	li	a1,516
800136f8:	3c028001 	lui	v0,0x8001
800136fc:	244677c0 	addiu	a2,v0,30656
80013700:	3c028001 	lui	v0,0x8001
80013704:	24477a70 	addiu	a3,v0,31344
80013708:	0c00418e 	jal	80010638 <__panic>
8001370c:	00000000 	nop
80013710:	3c028002 	lui	v0,0x8002
80013714:	8c425648 	lw	v0,22088(v0)
80013718:	00402021 	move	a0,v0
8001371c:	00002821 	move	a1,zero
80013720:	0c004bca 	jal	80012f28 <page_remove>
80013724:	00000000 	nop
80013728:	8fc40020 	lw	a0,32(s8)
8001372c:	0c0048fe 	jal	800123f8 <page_ref>
80013730:	00000000 	nop
80013734:	00401821 	move	v1,v0
80013738:	24020001 	li	v0,1
8001373c:	1062000a 	beq	v1,v0,80013768 <check_pgdir+0x650>
80013740:	00000000 	nop
80013744:	3c028001 	lui	v0,0x8001
80013748:	2444778c 	addiu	a0,v0,30604
8001374c:	24050207 	li	a1,519
80013750:	3c028001 	lui	v0,0x8001
80013754:	244677c0 	addiu	a2,v0,30656
80013758:	3c028001 	lui	v0,0x8001
8001375c:	2447792c 	addiu	a3,v0,31020
80013760:	0c00418e 	jal	80010638 <__panic>
80013764:	00000000 	nop
80013768:	8fc4001c 	lw	a0,28(s8)
8001376c:	0c0048fe 	jal	800123f8 <page_ref>
80013770:	00000000 	nop
80013774:	1040000a 	beqz	v0,800137a0 <check_pgdir+0x688>
80013778:	00000000 	nop
8001377c:	3c028001 	lui	v0,0x8001
80013780:	2444778c 	addiu	a0,v0,30604
80013784:	24050208 	li	a1,520
80013788:	3c028001 	lui	v0,0x8001
8001378c:	244677c0 	addiu	a2,v0,30656
80013790:	3c028001 	lui	v0,0x8001
80013794:	24477a5c 	addiu	a3,v0,31324
80013798:	0c00418e 	jal	80010638 <__panic>
8001379c:	00000000 	nop
800137a0:	3c028002 	lui	v0,0x8002
800137a4:	8c425648 	lw	v0,22088(v0)
800137a8:	00402021 	move	a0,v0
800137ac:	24051000 	li	a1,4096
800137b0:	0c004bca 	jal	80012f28 <page_remove>
800137b4:	00000000 	nop
800137b8:	8fc40020 	lw	a0,32(s8)
800137bc:	0c0048fe 	jal	800123f8 <page_ref>
800137c0:	00000000 	nop
800137c4:	1040000a 	beqz	v0,800137f0 <check_pgdir+0x6d8>
800137c8:	00000000 	nop
800137cc:	3c028001 	lui	v0,0x8001
800137d0:	2444778c 	addiu	a0,v0,30604
800137d4:	2405020b 	li	a1,523
800137d8:	3c028001 	lui	v0,0x8001
800137dc:	244677c0 	addiu	a2,v0,30656
800137e0:	3c028001 	lui	v0,0x8001
800137e4:	24477a88 	addiu	a3,v0,31368
800137e8:	0c00418e 	jal	80010638 <__panic>
800137ec:	00000000 	nop
800137f0:	8fc4001c 	lw	a0,28(s8)
800137f4:	0c0048fe 	jal	800123f8 <page_ref>
800137f8:	00000000 	nop
800137fc:	1040000a 	beqz	v0,80013828 <check_pgdir+0x710>
80013800:	00000000 	nop
80013804:	3c028001 	lui	v0,0x8001
80013808:	2444778c 	addiu	a0,v0,30604
8001380c:	2405020c 	li	a1,524
80013810:	3c028001 	lui	v0,0x8001
80013814:	244677c0 	addiu	a2,v0,30656
80013818:	3c028001 	lui	v0,0x8001
8001381c:	24477a5c 	addiu	a3,v0,31324
80013820:	0c00418e 	jal	80010638 <__panic>
80013824:	00000000 	nop
80013828:	3c028002 	lui	v0,0x8002
8001382c:	8c425648 	lw	v0,22088(v0)
80013830:	8c420000 	lw	v0,0(v0)
80013834:	00402021 	move	a0,v0
80013838:	0c00489e 	jal	80012278 <pa2page>
8001383c:	00000000 	nop
80013840:	00402021 	move	a0,v0
80013844:	0c0048fe 	jal	800123f8 <page_ref>
80013848:	00000000 	nop
8001384c:	00401821 	move	v1,v0
80013850:	24020001 	li	v0,1
80013854:	1062000a 	beq	v1,v0,80013880 <check_pgdir+0x768>
80013858:	00000000 	nop
8001385c:	3c028001 	lui	v0,0x8001
80013860:	2444778c 	addiu	a0,v0,30604
80013864:	2405020e 	li	a1,526
80013868:	3c028001 	lui	v0,0x8001
8001386c:	244677c0 	addiu	a2,v0,30656
80013870:	3c028001 	lui	v0,0x8001
80013874:	24477a9c 	addiu	a3,v0,31388
80013878:	0c00418e 	jal	80010638 <__panic>
8001387c:	00000000 	nop
80013880:	3c028002 	lui	v0,0x8002
80013884:	8c425648 	lw	v0,22088(v0)
80013888:	8c420000 	lw	v0,0(v0)
8001388c:	00402021 	move	a0,v0
80013890:	0c00489e 	jal	80012278 <pa2page>
80013894:	00000000 	nop
80013898:	00402021 	move	a0,v0
8001389c:	24050001 	li	a1,1
800138a0:	0c00498a 	jal	80012628 <free_pages>
800138a4:	00000000 	nop
800138a8:	3c028002 	lui	v0,0x8002
800138ac:	8c425648 	lw	v0,22088(v0)
800138b0:	ac400000 	sw	zero,0(v0)
800138b4:	3c028001 	lui	v0,0x8001
800138b8:	24447ac4 	addiu	a0,v0,31428
800138bc:	0c0040d7 	jal	8001035c <cprintf>
800138c0:	00000000 	nop
800138c4:	03c0e821 	move	sp,s8
800138c8:	8fbf002c 	lw	ra,44(sp)
800138cc:	8fbe0028 	lw	s8,40(sp)
800138d0:	27bd0030 	addiu	sp,sp,48
800138d4:	03e00008 	jr	ra
800138d8:	00000000 	nop

800138dc <check_boot_pgdir>:
800138dc:	27bdffd8 	addiu	sp,sp,-40
800138e0:	afbf0024 	sw	ra,36(sp)
800138e4:	afbe0020 	sw	s8,32(sp)
800138e8:	03a0f021 	move	s8,sp
800138ec:	3c028002 	lui	v0,0x8002
800138f0:	8c425648 	lw	v0,22088(v0)
800138f4:	24420fac 	addiu	v0,v0,4012
800138f8:	8c430000 	lw	v1,0(v0)
800138fc:	2402f000 	li	v0,-4096
80013900:	00621824 	and	v1,v1,v0
80013904:	3c028002 	lui	v0,0x8002
80013908:	8c425648 	lw	v0,22088(v0)
8001390c:	afc20010 	sw	v0,16(s8)
80013910:	8fc20010 	lw	v0,16(s8)
80013914:	04400009 	bltz	v0,8001393c <check_boot_pgdir+0x60>
80013918:	00000000 	nop
8001391c:	3c028001 	lui	v0,0x8001
80013920:	2444778c 	addiu	a0,v0,30604
80013924:	24050220 	li	a1,544
80013928:	3c028001 	lui	v0,0x8001
8001392c:	2446779c 	addiu	a2,v0,30620
80013930:	8fc70010 	lw	a3,16(s8)
80013934:	0c00418e 	jal	80010638 <__panic>
80013938:	00000000 	nop
8001393c:	8fc40010 	lw	a0,16(s8)
80013940:	3c028000 	lui	v0,0x8000
80013944:	00821021 	addu	v0,a0,v0
80013948:	1062000a 	beq	v1,v0,80013974 <check_boot_pgdir+0x98>
8001394c:	00000000 	nop
80013950:	3c028001 	lui	v0,0x8001
80013954:	2444778c 	addiu	a0,v0,30604
80013958:	24050220 	li	a1,544
8001395c:	3c028001 	lui	v0,0x8001
80013960:	244677c0 	addiu	a2,v0,30656
80013964:	3c028001 	lui	v0,0x8001
80013968:	24477ae0 	addiu	a3,v0,31456
8001396c:	0c00418e 	jal	80010638 <__panic>
80013970:	00000000 	nop
80013974:	3c028002 	lui	v0,0x8002
80013978:	8c425648 	lw	v0,22088(v0)
8001397c:	8c420000 	lw	v0,0(v0)
80013980:	1040000a 	beqz	v0,800139ac <check_boot_pgdir+0xd0>
80013984:	00000000 	nop
80013988:	3c028001 	lui	v0,0x8001
8001398c:	2444778c 	addiu	a0,v0,30604
80013990:	24050222 	li	a1,546
80013994:	3c028001 	lui	v0,0x8001
80013998:	244677c0 	addiu	a2,v0,30656
8001399c:	3c028001 	lui	v0,0x8001
800139a0:	24477b14 	addiu	a3,v0,31508
800139a4:	0c00418e 	jal	80010638 <__panic>
800139a8:	00000000 	nop
800139ac:	24040001 	li	a0,1
800139b0:	0c004970 	jal	800125c0 <alloc_pages>
800139b4:	00000000 	nop
800139b8:	afc20018 	sw	v0,24(s8)
800139bc:	3c028002 	lui	v0,0x8002
800139c0:	8c425648 	lw	v0,22088(v0)
800139c4:	00402021 	move	a0,v0
800139c8:	8fc50018 	lw	a1,24(s8)
800139cc:	24060100 	li	a2,256
800139d0:	24070002 	li	a3,2
800139d4:	0c004be4 	jal	80012f90 <page_insert>
800139d8:	00000000 	nop
800139dc:	1040000a 	beqz	v0,80013a08 <check_boot_pgdir+0x12c>
800139e0:	00000000 	nop
800139e4:	3c028001 	lui	v0,0x8001
800139e8:	2444778c 	addiu	a0,v0,30604
800139ec:	24050226 	li	a1,550
800139f0:	3c028001 	lui	v0,0x8001
800139f4:	244677c0 	addiu	a2,v0,30656
800139f8:	3c028001 	lui	v0,0x8001
800139fc:	24477b28 	addiu	a3,v0,31528
80013a00:	0c00418e 	jal	80010638 <__panic>
80013a04:	00000000 	nop
80013a08:	8fc40018 	lw	a0,24(s8)
80013a0c:	0c0048fe 	jal	800123f8 <page_ref>
80013a10:	00000000 	nop
80013a14:	00401821 	move	v1,v0
80013a18:	24020001 	li	v0,1
80013a1c:	1062000a 	beq	v1,v0,80013a48 <check_boot_pgdir+0x16c>
80013a20:	00000000 	nop
80013a24:	3c028001 	lui	v0,0x8001
80013a28:	2444778c 	addiu	a0,v0,30604
80013a2c:	24050227 	li	a1,551
80013a30:	3c028001 	lui	v0,0x8001
80013a34:	244677c0 	addiu	a2,v0,30656
80013a38:	3c028001 	lui	v0,0x8001
80013a3c:	24477b58 	addiu	a3,v0,31576
80013a40:	0c00418e 	jal	80010638 <__panic>
80013a44:	00000000 	nop
80013a48:	3c028002 	lui	v0,0x8002
80013a4c:	8c425648 	lw	v0,22088(v0)
80013a50:	00402021 	move	a0,v0
80013a54:	8fc50018 	lw	a1,24(s8)
80013a58:	24061100 	li	a2,4352
80013a5c:	24070002 	li	a3,2
80013a60:	0c004be4 	jal	80012f90 <page_insert>
80013a64:	00000000 	nop
80013a68:	1040000a 	beqz	v0,80013a94 <check_boot_pgdir+0x1b8>
80013a6c:	00000000 	nop
80013a70:	3c028001 	lui	v0,0x8001
80013a74:	2444778c 	addiu	a0,v0,30604
80013a78:	24050228 	li	a1,552
80013a7c:	3c028001 	lui	v0,0x8001
80013a80:	244677c0 	addiu	a2,v0,30656
80013a84:	3c028001 	lui	v0,0x8001
80013a88:	24477b6c 	addiu	a3,v0,31596
80013a8c:	0c00418e 	jal	80010638 <__panic>
80013a90:	00000000 	nop
80013a94:	8fc40018 	lw	a0,24(s8)
80013a98:	0c0048fe 	jal	800123f8 <page_ref>
80013a9c:	00000000 	nop
80013aa0:	00401821 	move	v1,v0
80013aa4:	24020002 	li	v0,2
80013aa8:	1062000a 	beq	v1,v0,80013ad4 <check_boot_pgdir+0x1f8>
80013aac:	00000000 	nop
80013ab0:	3c028001 	lui	v0,0x8001
80013ab4:	2444778c 	addiu	a0,v0,30604
80013ab8:	24050229 	li	a1,553
80013abc:	3c028001 	lui	v0,0x8001
80013ac0:	244677c0 	addiu	a2,v0,30656
80013ac4:	3c028001 	lui	v0,0x8001
80013ac8:	24477ba4 	addiu	a3,v0,31652
80013acc:	0c00418e 	jal	80010638 <__panic>
80013ad0:	00000000 	nop
80013ad4:	3c028001 	lui	v0,0x8001
80013ad8:	24427bb8 	addiu	v0,v0,31672
80013adc:	afc20014 	sw	v0,20(s8)
80013ae0:	8fc40018 	lw	a0,24(s8)
80013ae4:	0c0048bf 	jal	800122fc <page2kva>
80013ae8:	00000000 	nop
80013aec:	24420100 	addiu	v0,v0,256
80013af0:	a0400000 	sb	zero,0(v0)
80013af4:	8fc40018 	lw	a0,24(s8)
80013af8:	24050001 	li	a1,1
80013afc:	0c00498a 	jal	80012628 <free_pages>
80013b00:	00000000 	nop
80013b04:	3c028002 	lui	v0,0x8002
80013b08:	8c425648 	lw	v0,22088(v0)
80013b0c:	8c430000 	lw	v1,0(v0)
80013b10:	2402f000 	li	v0,-4096
80013b14:	00621024 	and	v0,v1,v0
80013b18:	00402021 	move	a0,v0
80013b1c:	0c00489e 	jal	80012278 <pa2page>
80013b20:	00000000 	nop
80013b24:	00402021 	move	a0,v0
80013b28:	24050001 	li	a1,1
80013b2c:	0c00498a 	jal	80012628 <free_pages>
80013b30:	00000000 	nop
80013b34:	3c028002 	lui	v0,0x8002
80013b38:	8c425648 	lw	v0,22088(v0)
80013b3c:	ac400000 	sw	zero,0(v0)
80013b40:	3c028001 	lui	v0,0x8001
80013b44:	24447bd0 	addiu	a0,v0,31696
80013b48:	0c0040d7 	jal	8001035c <cprintf>
80013b4c:	00000000 	nop
80013b50:	03c0e821 	move	sp,s8
80013b54:	8fbf0024 	lw	ra,36(sp)
80013b58:	8fbe0020 	lw	s8,32(sp)
80013b5c:	27bd0028 	addiu	sp,sp,40
80013b60:	03e00008 	jr	ra
80013b64:	00000000 	nop

80013b68 <perm2str>:
80013b68:	27bdfff8 	addiu	sp,sp,-8
80013b6c:	afbe0004 	sw	s8,4(sp)
80013b70:	03a0f021 	move	s8,sp
80013b74:	afc40008 	sw	a0,8(s8)
80013b78:	8fc20008 	lw	v0,8(s8)
80013b7c:	30420004 	andi	v0,v0,0x4
80013b80:	10400004 	beqz	v0,80013b94 <perm2str+0x2c>
80013b84:	00000000 	nop
80013b88:	24020075 	li	v0,117
80013b8c:	08004ee6 	j	80013b98 <perm2str+0x30>
80013b90:	00000000 	nop
80013b94:	2402002d 	li	v0,45
80013b98:	3c038002 	lui	v1,0x8002
80013b9c:	a062564c 	sb	v0,22092(v1)
80013ba0:	3c028002 	lui	v0,0x8002
80013ba4:	2442564c 	addiu	v0,v0,22092
80013ba8:	24030072 	li	v1,114
80013bac:	a0430001 	sb	v1,1(v0)
80013bb0:	8fc20008 	lw	v0,8(s8)
80013bb4:	30420002 	andi	v0,v0,0x2
80013bb8:	10400004 	beqz	v0,80013bcc <perm2str+0x64>
80013bbc:	00000000 	nop
80013bc0:	24020077 	li	v0,119
80013bc4:	08004ef4 	j	80013bd0 <perm2str+0x68>
80013bc8:	00000000 	nop
80013bcc:	2402002d 	li	v0,45
80013bd0:	3c038002 	lui	v1,0x8002
80013bd4:	2463564c 	addiu	v1,v1,22092
80013bd8:	a0620002 	sb	v0,2(v1)
80013bdc:	3c028002 	lui	v0,0x8002
80013be0:	2442564c 	addiu	v0,v0,22092
80013be4:	a0400003 	sb	zero,3(v0)
80013be8:	3c028002 	lui	v0,0x8002
80013bec:	2442564c 	addiu	v0,v0,22092
80013bf0:	03c0e821 	move	sp,s8
80013bf4:	8fbe0004 	lw	s8,4(sp)
80013bf8:	27bd0008 	addiu	sp,sp,8
80013bfc:	03e00008 	jr	ra
80013c00:	00000000 	nop

80013c04 <get_pgtable_items>:
80013c04:	27bdfff0 	addiu	sp,sp,-16
80013c08:	afbe000c 	sw	s8,12(sp)
80013c0c:	03a0f021 	move	s8,sp
80013c10:	afc40010 	sw	a0,16(s8)
80013c14:	afc50014 	sw	a1,20(s8)
80013c18:	afc60018 	sw	a2,24(s8)
80013c1c:	afc7001c 	sw	a3,28(s8)
80013c20:	8fc30018 	lw	v1,24(s8)
80013c24:	8fc20014 	lw	v0,20(s8)
80013c28:	0062102b 	sltu	v0,v1,v0
80013c2c:	14400007 	bnez	v0,80013c4c <get_pgtable_items+0x48>
80013c30:	00000000 	nop
80013c34:	00001021 	move	v0,zero
80013c38:	08004f52 	j	80013d48 <get_pgtable_items+0x144>
80013c3c:	00000000 	nop
80013c40:	8fc20018 	lw	v0,24(s8)
80013c44:	24420001 	addiu	v0,v0,1
80013c48:	afc20018 	sw	v0,24(s8)
80013c4c:	8fc30018 	lw	v1,24(s8)
80013c50:	8fc20014 	lw	v0,20(s8)
80013c54:	0062102b 	sltu	v0,v1,v0
80013c58:	10400009 	beqz	v0,80013c80 <get_pgtable_items+0x7c>
80013c5c:	00000000 	nop
80013c60:	8fc20018 	lw	v0,24(s8)
80013c64:	00021080 	sll	v0,v0,0x2
80013c68:	8fc3001c 	lw	v1,28(s8)
80013c6c:	00621021 	addu	v0,v1,v0
80013c70:	8c420000 	lw	v0,0(v0)
80013c74:	30420001 	andi	v0,v0,0x1
80013c78:	1040fff1 	beqz	v0,80013c40 <get_pgtable_items+0x3c>
80013c7c:	00000000 	nop
80013c80:	8fc30018 	lw	v1,24(s8)
80013c84:	8fc20014 	lw	v0,20(s8)
80013c88:	0062102b 	sltu	v0,v1,v0
80013c8c:	1040002d 	beqz	v0,80013d44 <get_pgtable_items+0x140>
80013c90:	00000000 	nop
80013c94:	8fc20020 	lw	v0,32(s8)
80013c98:	10400004 	beqz	v0,80013cac <get_pgtable_items+0xa8>
80013c9c:	00000000 	nop
80013ca0:	8fc20020 	lw	v0,32(s8)
80013ca4:	8fc30018 	lw	v1,24(s8)
80013ca8:	ac430000 	sw	v1,0(v0)
80013cac:	8fc20018 	lw	v0,24(s8)
80013cb0:	00021080 	sll	v0,v0,0x2
80013cb4:	8fc3001c 	lw	v1,28(s8)
80013cb8:	00621021 	addu	v0,v1,v0
80013cbc:	8c420000 	lw	v0,0(v0)
80013cc0:	30420007 	andi	v0,v0,0x7
80013cc4:	afc20000 	sw	v0,0(s8)
80013cc8:	8fc20018 	lw	v0,24(s8)
80013ccc:	24420001 	addiu	v0,v0,1
80013cd0:	afc20018 	sw	v0,24(s8)
80013cd4:	08004f3a 	j	80013ce8 <get_pgtable_items+0xe4>
80013cd8:	00000000 	nop
80013cdc:	8fc20018 	lw	v0,24(s8)
80013ce0:	24420001 	addiu	v0,v0,1
80013ce4:	afc20018 	sw	v0,24(s8)
80013ce8:	8fc30018 	lw	v1,24(s8)
80013cec:	8fc20014 	lw	v0,20(s8)
80013cf0:	0062102b 	sltu	v0,v1,v0
80013cf4:	1040000a 	beqz	v0,80013d20 <get_pgtable_items+0x11c>
80013cf8:	00000000 	nop
80013cfc:	8fc20018 	lw	v0,24(s8)
80013d00:	00021080 	sll	v0,v0,0x2
80013d04:	8fc3001c 	lw	v1,28(s8)
80013d08:	00621021 	addu	v0,v1,v0
80013d0c:	8c420000 	lw	v0,0(v0)
80013d10:	30430007 	andi	v1,v0,0x7
80013d14:	8fc20000 	lw	v0,0(s8)
80013d18:	1062fff0 	beq	v1,v0,80013cdc <get_pgtable_items+0xd8>
80013d1c:	00000000 	nop
80013d20:	8fc20024 	lw	v0,36(s8)
80013d24:	10400004 	beqz	v0,80013d38 <get_pgtable_items+0x134>
80013d28:	00000000 	nop
80013d2c:	8fc20024 	lw	v0,36(s8)
80013d30:	8fc30018 	lw	v1,24(s8)
80013d34:	ac430000 	sw	v1,0(v0)
80013d38:	8fc20000 	lw	v0,0(s8)
80013d3c:	08004f52 	j	80013d48 <get_pgtable_items+0x144>
80013d40:	00000000 	nop
80013d44:	00001021 	move	v0,zero
80013d48:	03c0e821 	move	sp,s8
80013d4c:	8fbe000c 	lw	s8,12(sp)
80013d50:	27bd0010 	addiu	sp,sp,16
80013d54:	03e00008 	jr	ra
80013d58:	00000000 	nop

80013d5c <print_pgdir>:
80013d5c:	27bdffb8 	addiu	sp,sp,-72
80013d60:	afbf0044 	sw	ra,68(sp)
80013d64:	afbe0040 	sw	s8,64(sp)
80013d68:	afb3003c 	sw	s3,60(sp)
80013d6c:	afb20038 	sw	s2,56(sp)
80013d70:	afb10034 	sw	s1,52(sp)
80013d74:	afb00030 	sw	s0,48(sp)
80013d78:	03a0f021 	move	s8,sp
80013d7c:	3c028001 	lui	v0,0x8001
80013d80:	24447bf0 	addiu	a0,v0,31728
80013d84:	0c0040d7 	jal	8001035c <cprintf>
80013d88:	00000000 	nop
80013d8c:	afc00020 	sw	zero,32(s8)
80013d90:	08004fae 	j	80013eb8 <print_pgdir+0x15c>
80013d94:	00000000 	nop
80013d98:	8fc30020 	lw	v1,32(s8)
80013d9c:	8fc2001c 	lw	v0,28(s8)
80013da0:	00629023 	subu	s2,v1,v0
80013da4:	8fc2001c 	lw	v0,28(s8)
80013da8:	00028d80 	sll	s1,v0,0x16
80013dac:	8fc20020 	lw	v0,32(s8)
80013db0:	00028580 	sll	s0,v0,0x16
80013db4:	8fc30020 	lw	v1,32(s8)
80013db8:	8fc2001c 	lw	v0,28(s8)
80013dbc:	00621023 	subu	v0,v1,v0
80013dc0:	00029d80 	sll	s3,v0,0x16
80013dc4:	8fc20018 	lw	v0,24(s8)
80013dc8:	00402021 	move	a0,v0
80013dcc:	0c004eda 	jal	80013b68 <perm2str>
80013dd0:	00000000 	nop
80013dd4:	afb30010 	sw	s3,16(sp)
80013dd8:	afa20014 	sw	v0,20(sp)
80013ddc:	3c028001 	lui	v0,0x8001
80013de0:	24447c24 	addiu	a0,v0,31780
80013de4:	02402821 	move	a1,s2
80013de8:	02203021 	move	a2,s1
80013dec:	02003821 	move	a3,s0
80013df0:	0c0040d7 	jal	8001035c <cprintf>
80013df4:	00000000 	nop
80013df8:	8fc2001c 	lw	v0,28(s8)
80013dfc:	00021280 	sll	v0,v0,0xa
80013e00:	afc20028 	sw	v0,40(s8)
80013e04:	08004f9b 	j	80013e6c <print_pgdir+0x110>
80013e08:	00000000 	nop
80013e0c:	8fc30028 	lw	v1,40(s8)
80013e10:	8fc20024 	lw	v0,36(s8)
80013e14:	00629023 	subu	s2,v1,v0
80013e18:	8fc20024 	lw	v0,36(s8)
80013e1c:	00028b00 	sll	s1,v0,0xc
80013e20:	8fc20028 	lw	v0,40(s8)
80013e24:	00028300 	sll	s0,v0,0xc
80013e28:	8fc30028 	lw	v1,40(s8)
80013e2c:	8fc20024 	lw	v0,36(s8)
80013e30:	00621023 	subu	v0,v1,v0
80013e34:	00029b00 	sll	s3,v0,0xc
80013e38:	8fc20018 	lw	v0,24(s8)
80013e3c:	00402021 	move	a0,v0
80013e40:	0c004eda 	jal	80013b68 <perm2str>
80013e44:	00000000 	nop
80013e48:	afb30010 	sw	s3,16(sp)
80013e4c:	afa20014 	sw	v0,20(sp)
80013e50:	3c028001 	lui	v0,0x8001
80013e54:	24447c44 	addiu	a0,v0,31812
80013e58:	02402821 	move	a1,s2
80013e5c:	02203021 	move	a2,s1
80013e60:	02003821 	move	a3,s0
80013e64:	0c0040d7 	jal	8001035c <cprintf>
80013e68:	00000000 	nop
80013e6c:	8fc2001c 	lw	v0,28(s8)
80013e70:	00022280 	sll	a0,v0,0xa
80013e74:	8fc20020 	lw	v0,32(s8)
80013e78:	00022a80 	sll	a1,v0,0xa
80013e7c:	8fc30028 	lw	v1,40(s8)
80013e80:	3c028001 	lui	v0,0x8001
80013e84:	8c42776c 	lw	v0,30572(v0)
80013e88:	27c60024 	addiu	a2,s8,36
80013e8c:	afa60010 	sw	a2,16(sp)
80013e90:	27c60028 	addiu	a2,s8,40
80013e94:	afa60014 	sw	a2,20(sp)
80013e98:	00603021 	move	a2,v1
80013e9c:	00403821 	move	a3,v0
80013ea0:	0c004f01 	jal	80013c04 <get_pgtable_items>
80013ea4:	00000000 	nop
80013ea8:	afc20018 	sw	v0,24(s8)
80013eac:	8fc20018 	lw	v0,24(s8)
80013eb0:	1440ffd6 	bnez	v0,80013e0c <print_pgdir+0xb0>
80013eb4:	00000000 	nop
80013eb8:	8fc30020 	lw	v1,32(s8)
80013ebc:	3c028001 	lui	v0,0x8001
80013ec0:	8c427770 	lw	v0,30576(v0)
80013ec4:	27c4001c 	addiu	a0,s8,28
80013ec8:	afa40010 	sw	a0,16(sp)
80013ecc:	27c40020 	addiu	a0,s8,32
80013ed0:	afa40014 	sw	a0,20(sp)
80013ed4:	00002021 	move	a0,zero
80013ed8:	24050400 	li	a1,1024
80013edc:	00603021 	move	a2,v1
80013ee0:	00403821 	move	a3,v0
80013ee4:	0c004f01 	jal	80013c04 <get_pgtable_items>
80013ee8:	00000000 	nop
80013eec:	afc20018 	sw	v0,24(s8)
80013ef0:	8fc20018 	lw	v0,24(s8)
80013ef4:	1440ffa8 	bnez	v0,80013d98 <print_pgdir+0x3c>
80013ef8:	00000000 	nop
80013efc:	3c028001 	lui	v0,0x8001
80013f00:	24447c68 	addiu	a0,v0,31848
80013f04:	0c0040d7 	jal	8001035c <cprintf>
80013f08:	00000000 	nop
80013f0c:	03c0e821 	move	sp,s8
80013f10:	8fbf0044 	lw	ra,68(sp)
80013f14:	8fbe0040 	lw	s8,64(sp)
80013f18:	8fb3003c 	lw	s3,60(sp)
80013f1c:	8fb20038 	lw	s2,56(sp)
80013f20:	8fb10034 	lw	s1,52(sp)
80013f24:	8fb00030 	lw	s0,48(sp)
80013f28:	27bd0048 	addiu	sp,sp,72
80013f2c:	03e00008 	jr	ra
80013f30:	00000000 	nop

80013f34 <__intr_save>:
80013f34:	27bdffe0 	addiu	sp,sp,-32
80013f38:	afbf001c 	sw	ra,28(sp)
80013f3c:	afbe0018 	sw	s8,24(sp)
80013f40:	03a0f021 	move	s8,sp
80013f44:	40026000 	mfc0	v0,c0_status
80013f48:	afc20010 	sw	v0,16(s8)
80013f4c:	8fc20010 	lw	v0,16(s8)
80013f50:	30420001 	andi	v0,v0,0x1
80013f54:	304200ff 	andi	v0,v0,0xff
80013f58:	10400005 	beqz	v0,80013f70 <__intr_save+0x3c>
80013f5c:	00000000 	nop
80013f60:	0c0046cb 	jal	80011b2c <intr_disable>
80013f64:	00000000 	nop
80013f68:	08004fdd 	j	80013f74 <__intr_save+0x40>
80013f6c:	24020001 	li	v0,1
80013f70:	00001021 	move	v0,zero
80013f74:	03c0e821 	move	sp,s8
80013f78:	8fbf001c 	lw	ra,28(sp)
80013f7c:	8fbe0018 	lw	s8,24(sp)
80013f80:	03e00008 	jr	ra
80013f84:	27bd0020 	addiu	sp,sp,32

80013f88 <__intr_restore>:
80013f88:	27bdffe8 	addiu	sp,sp,-24
80013f8c:	afbf0014 	sw	ra,20(sp)
80013f90:	afbe0010 	sw	s8,16(sp)
80013f94:	03a0f021 	move	s8,sp
80013f98:	afc40018 	sw	a0,24(s8)
80013f9c:	8fc20018 	lw	v0,24(s8)
80013fa0:	10400003 	beqz	v0,80013fb0 <__intr_restore+0x28>
80013fa4:	00000000 	nop
80013fa8:	0c0046bd 	jal	80011af4 <intr_enable>
80013fac:	00000000 	nop
80013fb0:	03c0e821 	move	sp,s8
80013fb4:	8fbf0014 	lw	ra,20(sp)
80013fb8:	8fbe0010 	lw	s8,16(sp)
80013fbc:	27bd0018 	addiu	sp,sp,24
80013fc0:	03e00008 	jr	ra
80013fc4:	00000000 	nop

80013fc8 <page2ppn>:
80013fc8:	27bdfff8 	addiu	sp,sp,-8
80013fcc:	afbe0004 	sw	s8,4(sp)
80013fd0:	03a0f021 	move	s8,sp
80013fd4:	afc40008 	sw	a0,8(s8)
80013fd8:	8fc30008 	lw	v1,8(s8)
80013fdc:	3c028002 	lui	v0,0x8002
80013fe0:	8c425668 	lw	v0,22120(v0)
80013fe4:	00621023 	subu	v0,v1,v0
80013fe8:	00021883 	sra	v1,v0,0x2
80013fec:	3c02cccc 	lui	v0,0xcccc
80013ff0:	3442cccd 	ori	v0,v0,0xcccd
80013ff4:	70621002 	mul	v0,v1,v0
80013ff8:	03c0e821 	move	sp,s8
80013ffc:	8fbe0004 	lw	s8,4(sp)
80014000:	27bd0008 	addiu	sp,sp,8
80014004:	03e00008 	jr	ra
80014008:	00000000 	nop

8001400c <page2pa>:
8001400c:	27bdffe8 	addiu	sp,sp,-24
80014010:	afbf0014 	sw	ra,20(sp)
80014014:	afbe0010 	sw	s8,16(sp)
80014018:	03a0f021 	move	s8,sp
8001401c:	afc40018 	sw	a0,24(s8)
80014020:	8fc40018 	lw	a0,24(s8)
80014024:	0c004ff2 	jal	80013fc8 <page2ppn>
80014028:	00000000 	nop
8001402c:	00021300 	sll	v0,v0,0xc
80014030:	03c0e821 	move	sp,s8
80014034:	8fbf0014 	lw	ra,20(sp)
80014038:	8fbe0010 	lw	s8,16(sp)
8001403c:	27bd0018 	addiu	sp,sp,24
80014040:	03e00008 	jr	ra
80014044:	00000000 	nop

80014048 <page_ref>:
80014048:	27bdfff8 	addiu	sp,sp,-8
8001404c:	afbe0004 	sw	s8,4(sp)
80014050:	03a0f021 	move	s8,sp
80014054:	afc40008 	sw	a0,8(s8)
80014058:	8fc20008 	lw	v0,8(s8)
8001405c:	8c420000 	lw	v0,0(v0)
80014060:	03c0e821 	move	sp,s8
80014064:	8fbe0004 	lw	s8,4(sp)
80014068:	27bd0008 	addiu	sp,sp,8
8001406c:	03e00008 	jr	ra
80014070:	00000000 	nop

80014074 <set_page_ref>:
80014074:	27bdfff8 	addiu	sp,sp,-8
80014078:	afbe0004 	sw	s8,4(sp)
8001407c:	03a0f021 	move	s8,sp
80014080:	afc40008 	sw	a0,8(s8)
80014084:	afc5000c 	sw	a1,12(s8)
80014088:	8fc20008 	lw	v0,8(s8)
8001408c:	8fc3000c 	lw	v1,12(s8)
80014090:	ac430000 	sw	v1,0(v0)
80014094:	03c0e821 	move	sp,s8
80014098:	8fbe0004 	lw	s8,4(sp)
8001409c:	27bd0008 	addiu	sp,sp,8
800140a0:	03e00008 	jr	ra
800140a4:	00000000 	nop

800140a8 <default_list_add>:
800140a8:	27bdffb0 	addiu	sp,sp,-80
800140ac:	afbf004c 	sw	ra,76(sp)
800140b0:	afbe0048 	sw	s8,72(sp)
800140b4:	03a0f021 	move	s8,sp
800140b8:	afc40050 	sw	a0,80(s8)
800140bc:	afc50054 	sw	a1,84(s8)
800140c0:	8fc30050 	lw	v1,80(s8)
800140c4:	3c028002 	lui	v0,0x8002
800140c8:	24425650 	addiu	v0,v0,22096
800140cc:	1062000a 	beq	v1,v0,800140f8 <default_list_add+0x50>
800140d0:	00000000 	nop
800140d4:	3c028001 	lui	v0,0x8001
800140d8:	24447c9c 	addiu	a0,v0,31900
800140dc:	24050040 	li	a1,64
800140e0:	3c028001 	lui	v0,0x8001
800140e4:	24467cb4 	addiu	a2,v0,31924
800140e8:	3c028001 	lui	v0,0x8001
800140ec:	24477ccc 	addiu	a3,v0,31948
800140f0:	0c00418e 	jal	80010638 <__panic>
800140f4:	00000000 	nop
800140f8:	8fc20054 	lw	v0,84(s8)
800140fc:	2442fff4 	addiu	v0,v0,-12
80014100:	afc20040 	sw	v0,64(s8)
80014104:	0800509a 	j	80014268 <default_list_add+0x1c0>
80014108:	00000000 	nop
8001410c:	8fc20050 	lw	v0,80(s8)
80014110:	2442fff4 	addiu	v0,v0,-12
80014114:	afc2003c 	sw	v0,60(s8)
80014118:	8fc30040 	lw	v1,64(s8)
8001411c:	8fc2003c 	lw	v0,60(s8)
80014120:	1462000a 	bne	v1,v0,8001414c <default_list_add+0xa4>
80014124:	00000000 	nop
80014128:	3c028001 	lui	v0,0x8001
8001412c:	24447c9c 	addiu	a0,v0,31900
80014130:	24050044 	li	a1,68
80014134:	3c028001 	lui	v0,0x8001
80014138:	24467cb4 	addiu	a2,v0,31924
8001413c:	3c028001 	lui	v0,0x8001
80014140:	24477ce4 	addiu	a3,v0,31972
80014144:	0c00418e 	jal	80010638 <__panic>
80014148:	00000000 	nop
8001414c:	8fc30040 	lw	v1,64(s8)
80014150:	8fc2003c 	lw	v0,60(s8)
80014154:	0062102b 	sltu	v0,v1,v0
80014158:	1040002f 	beqz	v0,80014218 <default_list_add+0x170>
8001415c:	00000000 	nop
80014160:	8fc20040 	lw	v0,64(s8)
80014164:	8c420008 	lw	v0,8(v0)
80014168:	00021080 	sll	v0,v0,0x2
8001416c:	00021880 	sll	v1,v0,0x2
80014170:	00431021 	addu	v0,v0,v1
80014174:	8fc30040 	lw	v1,64(s8)
80014178:	00621821 	addu	v1,v1,v0
8001417c:	8fc2003c 	lw	v0,60(s8)
80014180:	0043102b 	sltu	v0,v0,v1
80014184:	1040000a 	beqz	v0,800141b0 <default_list_add+0x108>
80014188:	00000000 	nop
8001418c:	3c028001 	lui	v0,0x8001
80014190:	24447c9c 	addiu	a0,v0,31900
80014194:	24050046 	li	a1,70
80014198:	3c028001 	lui	v0,0x8001
8001419c:	24467cb4 	addiu	a2,v0,31924
800141a0:	3c028001 	lui	v0,0x8001
800141a4:	24477cf0 	addiu	a3,v0,31984
800141a8:	0c00418e 	jal	80010638 <__panic>
800141ac:	00000000 	nop
800141b0:	8fc20050 	lw	v0,80(s8)
800141b4:	afc20034 	sw	v0,52(s8)
800141b8:	8fc20054 	lw	v0,84(s8)
800141bc:	afc20038 	sw	v0,56(s8)
800141c0:	8fc20034 	lw	v0,52(s8)
800141c4:	8c420000 	lw	v0,0(v0)
800141c8:	8fc30038 	lw	v1,56(s8)
800141cc:	afc30028 	sw	v1,40(s8)
800141d0:	afc2002c 	sw	v0,44(s8)
800141d4:	8fc20034 	lw	v0,52(s8)
800141d8:	afc20030 	sw	v0,48(s8)
800141dc:	8fc20030 	lw	v0,48(s8)
800141e0:	8fc30028 	lw	v1,40(s8)
800141e4:	ac430000 	sw	v1,0(v0)
800141e8:	8fc20030 	lw	v0,48(s8)
800141ec:	8c430000 	lw	v1,0(v0)
800141f0:	8fc2002c 	lw	v0,44(s8)
800141f4:	ac430004 	sw	v1,4(v0)
800141f8:	8fc20028 	lw	v0,40(s8)
800141fc:	8fc30030 	lw	v1,48(s8)
80014200:	ac430004 	sw	v1,4(v0)
80014204:	8fc20028 	lw	v0,40(s8)
80014208:	8fc3002c 	lw	v1,44(s8)
8001420c:	ac430000 	sw	v1,0(v0)
80014210:	080050a4 	j	80014290 <default_list_add+0x1e8>
80014214:	00000000 	nop
80014218:	8fc2003c 	lw	v0,60(s8)
8001421c:	8c420008 	lw	v0,8(v0)
80014220:	00021080 	sll	v0,v0,0x2
80014224:	00021880 	sll	v1,v0,0x2
80014228:	00431021 	addu	v0,v0,v1
8001422c:	8fc3003c 	lw	v1,60(s8)
80014230:	00621821 	addu	v1,v1,v0
80014234:	8fc20040 	lw	v0,64(s8)
80014238:	0043102b 	sltu	v0,v0,v1
8001423c:	1040000a 	beqz	v0,80014268 <default_list_add+0x1c0>
80014240:	00000000 	nop
80014244:	3c028001 	lui	v0,0x8001
80014248:	24447c9c 	addiu	a0,v0,31900
8001424c:	2405004a 	li	a1,74
80014250:	3c028001 	lui	v0,0x8001
80014254:	24467cb4 	addiu	a2,v0,31924
80014258:	3c028001 	lui	v0,0x8001
8001425c:	24477d0c 	addiu	a3,v0,32012
80014260:	0c00418e 	jal	80010638 <__panic>
80014264:	00000000 	nop
80014268:	8fc20050 	lw	v0,80(s8)
8001426c:	afc20024 	sw	v0,36(s8)
80014270:	8fc20024 	lw	v0,36(s8)
80014274:	8c420004 	lw	v0,4(v0)
80014278:	afc20050 	sw	v0,80(s8)
8001427c:	8fc30050 	lw	v1,80(s8)
80014280:	3c028002 	lui	v0,0x8002
80014284:	24425650 	addiu	v0,v0,22096
80014288:	1462ffa0 	bne	v1,v0,8001410c <default_list_add+0x64>
8001428c:	00000000 	nop
80014290:	8fc30050 	lw	v1,80(s8)
80014294:	3c028002 	lui	v0,0x8002
80014298:	24425650 	addiu	v0,v0,22096
8001429c:	14620019 	bne	v1,v0,80014304 <default_list_add+0x25c>
800142a0:	00000000 	nop
800142a4:	8fc20050 	lw	v0,80(s8)
800142a8:	afc2001c 	sw	v0,28(s8)
800142ac:	8fc20054 	lw	v0,84(s8)
800142b0:	afc20020 	sw	v0,32(s8)
800142b4:	8fc2001c 	lw	v0,28(s8)
800142b8:	8c420000 	lw	v0,0(v0)
800142bc:	8fc30020 	lw	v1,32(s8)
800142c0:	afc30010 	sw	v1,16(s8)
800142c4:	afc20014 	sw	v0,20(s8)
800142c8:	8fc2001c 	lw	v0,28(s8)
800142cc:	afc20018 	sw	v0,24(s8)
800142d0:	8fc20018 	lw	v0,24(s8)
800142d4:	8fc30010 	lw	v1,16(s8)
800142d8:	ac430000 	sw	v1,0(v0)
800142dc:	8fc20018 	lw	v0,24(s8)
800142e0:	8c430000 	lw	v1,0(v0)
800142e4:	8fc20014 	lw	v0,20(s8)
800142e8:	ac430004 	sw	v1,4(v0)
800142ec:	8fc20010 	lw	v0,16(s8)
800142f0:	8fc30018 	lw	v1,24(s8)
800142f4:	ac430004 	sw	v1,4(v0)
800142f8:	8fc20010 	lw	v0,16(s8)
800142fc:	8fc30014 	lw	v1,20(s8)
80014300:	ac430000 	sw	v1,0(v0)
80014304:	03c0e821 	move	sp,s8
80014308:	8fbf004c 	lw	ra,76(sp)
8001430c:	8fbe0048 	lw	s8,72(sp)
80014310:	27bd0050 	addiu	sp,sp,80
80014314:	03e00008 	jr	ra
80014318:	00000000 	nop

8001431c <default_init>:
8001431c:	27bdfff0 	addiu	sp,sp,-16
80014320:	afbe000c 	sw	s8,12(sp)
80014324:	03a0f021 	move	s8,sp
80014328:	3c028002 	lui	v0,0x8002
8001432c:	24425650 	addiu	v0,v0,22096
80014330:	afc20000 	sw	v0,0(s8)
80014334:	8fc20000 	lw	v0,0(s8)
80014338:	8fc30000 	lw	v1,0(s8)
8001433c:	ac430004 	sw	v1,4(v0)
80014340:	8fc20000 	lw	v0,0(s8)
80014344:	8c430004 	lw	v1,4(v0)
80014348:	8fc20000 	lw	v0,0(s8)
8001434c:	ac430000 	sw	v1,0(v0)
80014350:	3c028002 	lui	v0,0x8002
80014354:	24425650 	addiu	v0,v0,22096
80014358:	ac400008 	sw	zero,8(v0)
8001435c:	03c0e821 	move	sp,s8
80014360:	8fbe000c 	lw	s8,12(sp)
80014364:	27bd0010 	addiu	sp,sp,16
80014368:	03e00008 	jr	ra
8001436c:	00000000 	nop

80014370 <default_init_memmap>:
80014370:	27bdffc8 	addiu	sp,sp,-56
80014374:	afbf0034 	sw	ra,52(sp)
80014378:	afbe0030 	sw	s8,48(sp)
8001437c:	03a0f021 	move	s8,sp
80014380:	afc40038 	sw	a0,56(s8)
80014384:	afc5003c 	sw	a1,60(s8)
80014388:	8fc2003c 	lw	v0,60(s8)
8001438c:	1440000a 	bnez	v0,800143b8 <default_init_memmap+0x48>
80014390:	00000000 	nop
80014394:	3c028001 	lui	v0,0x8001
80014398:	24447c9c 	addiu	a0,v0,31900
8001439c:	24050059 	li	a1,89
800143a0:	3c028001 	lui	v0,0x8001
800143a4:	24467cb4 	addiu	a2,v0,31924
800143a8:	3c028001 	lui	v0,0x8001
800143ac:	24477d24 	addiu	a3,v0,32036
800143b0:	0c00418e 	jal	80010638 <__panic>
800143b4:	00000000 	nop
800143b8:	8fc20038 	lw	v0,56(s8)
800143bc:	afc2002c 	sw	v0,44(s8)
800143c0:	0800511b 	j	8001446c <default_init_memmap+0xfc>
800143c4:	00000000 	nop
800143c8:	8fc2002c 	lw	v0,44(s8)
800143cc:	24420004 	addiu	v0,v0,4
800143d0:	afc00024 	sw	zero,36(s8)
800143d4:	afc20028 	sw	v0,40(s8)
800143d8:	0c004fcd 	jal	80013f34 <__intr_save>
800143dc:	00000000 	nop
800143e0:	afc20020 	sw	v0,32(s8)
800143e4:	8fc20028 	lw	v0,40(s8)
800143e8:	8c430000 	lw	v1,0(v0)
800143ec:	24040001 	li	a0,1
800143f0:	8fc20024 	lw	v0,36(s8)
800143f4:	00441004 	sllv	v0,a0,v0
800143f8:	00621024 	and	v0,v1,v0
800143fc:	afc2001c 	sw	v0,28(s8)
80014400:	8fc40020 	lw	a0,32(s8)
80014404:	0c004fe2 	jal	80013f88 <__intr_restore>
80014408:	00000000 	nop
8001440c:	8fc2001c 	lw	v0,28(s8)
80014410:	0002102b 	sltu	v0,zero,v0
80014414:	1440000a 	bnez	v0,80014440 <default_init_memmap+0xd0>
80014418:	00000000 	nop
8001441c:	3c028001 	lui	v0,0x8001
80014420:	24447c9c 	addiu	a0,v0,31900
80014424:	2405005c 	li	a1,92
80014428:	3c028001 	lui	v0,0x8001
8001442c:	24467cb4 	addiu	a2,v0,31924
80014430:	3c028001 	lui	v0,0x8001
80014434:	24477d2c 	addiu	a3,v0,32044
80014438:	0c00418e 	jal	80010638 <__panic>
8001443c:	00000000 	nop
80014440:	8fc2002c 	lw	v0,44(s8)
80014444:	ac400004 	sw	zero,4(v0)
80014448:	8fc2002c 	lw	v0,44(s8)
8001444c:	ac400008 	sw	zero,8(v0)
80014450:	8fc4002c 	lw	a0,44(s8)
80014454:	00002821 	move	a1,zero
80014458:	0c00501d 	jal	80014074 <set_page_ref>
8001445c:	00000000 	nop
80014460:	8fc2002c 	lw	v0,44(s8)
80014464:	24420014 	addiu	v0,v0,20
80014468:	afc2002c 	sw	v0,44(s8)
8001446c:	8fc2003c 	lw	v0,60(s8)
80014470:	00021080 	sll	v0,v0,0x2
80014474:	00021880 	sll	v1,v0,0x2
80014478:	00431021 	addu	v0,v0,v1
8001447c:	8fc30038 	lw	v1,56(s8)
80014480:	00621821 	addu	v1,v1,v0
80014484:	8fc2002c 	lw	v0,44(s8)
80014488:	1462ffcf 	bne	v1,v0,800143c8 <default_init_memmap+0x58>
8001448c:	00000000 	nop
80014490:	8fc20038 	lw	v0,56(s8)
80014494:	8fc3003c 	lw	v1,60(s8)
80014498:	ac430008 	sw	v1,8(v0)
8001449c:	8fc20038 	lw	v0,56(s8)
800144a0:	24420004 	addiu	v0,v0,4
800144a4:	24030001 	li	v1,1
800144a8:	afc30014 	sw	v1,20(s8)
800144ac:	afc20018 	sw	v0,24(s8)
800144b0:	0c004fcd 	jal	80013f34 <__intr_save>
800144b4:	00000000 	nop
800144b8:	afc20010 	sw	v0,16(s8)
800144bc:	8fc20018 	lw	v0,24(s8)
800144c0:	8fc30018 	lw	v1,24(s8)
800144c4:	8c640000 	lw	a0,0(v1)
800144c8:	24050001 	li	a1,1
800144cc:	8fc30014 	lw	v1,20(s8)
800144d0:	00651804 	sllv	v1,a1,v1
800144d4:	00831825 	or	v1,a0,v1
800144d8:	ac430000 	sw	v1,0(v0)
800144dc:	8fc40010 	lw	a0,16(s8)
800144e0:	0c004fe2 	jal	80013f88 <__intr_restore>
800144e4:	00000000 	nop
800144e8:	3c028002 	lui	v0,0x8002
800144ec:	24425650 	addiu	v0,v0,22096
800144f0:	8c430008 	lw	v1,8(v0)
800144f4:	8fc2003c 	lw	v0,60(s8)
800144f8:	00621821 	addu	v1,v1,v0
800144fc:	3c028002 	lui	v0,0x8002
80014500:	24425650 	addiu	v0,v0,22096
80014504:	ac430008 	sw	v1,8(v0)
80014508:	8fc20038 	lw	v0,56(s8)
8001450c:	2442000c 	addiu	v0,v0,12
80014510:	3c038002 	lui	v1,0x8002
80014514:	24645650 	addiu	a0,v1,22096
80014518:	00402821 	move	a1,v0
8001451c:	0c00502a 	jal	800140a8 <default_list_add>
80014520:	00000000 	nop
80014524:	03c0e821 	move	sp,s8
80014528:	8fbf0034 	lw	ra,52(sp)
8001452c:	8fbe0030 	lw	s8,48(sp)
80014530:	27bd0038 	addiu	sp,sp,56
80014534:	03e00008 	jr	ra
80014538:	00000000 	nop

8001453c <default_alloc_pages>:
8001453c:	27bdff90 	addiu	sp,sp,-112
80014540:	afbf006c 	sw	ra,108(sp)
80014544:	afbe0068 	sw	s8,104(sp)
80014548:	03a0f021 	move	s8,sp
8001454c:	afc40070 	sw	a0,112(s8)
80014550:	8fc20070 	lw	v0,112(s8)
80014554:	1440000a 	bnez	v0,80014580 <default_alloc_pages+0x44>
80014558:	00000000 	nop
8001455c:	3c028001 	lui	v0,0x8001
80014560:	24447c9c 	addiu	a0,v0,31900
80014564:	24050069 	li	a1,105
80014568:	3c028001 	lui	v0,0x8001
8001456c:	24467cb4 	addiu	a2,v0,31924
80014570:	3c028001 	lui	v0,0x8001
80014574:	24477d24 	addiu	a3,v0,32036
80014578:	0c00418e 	jal	80010638 <__panic>
8001457c:	00000000 	nop
80014580:	3c028002 	lui	v0,0x8002
80014584:	24425650 	addiu	v0,v0,22096
80014588:	8c430008 	lw	v1,8(v0)
8001458c:	8fc20070 	lw	v0,112(s8)
80014590:	0062102b 	sltu	v0,v1,v0
80014594:	10400004 	beqz	v0,800145a8 <default_alloc_pages+0x6c>
80014598:	00000000 	nop
8001459c:	00001021 	move	v0,zero
800145a0:	080051fa 	j	800147e8 <default_alloc_pages+0x2ac>
800145a4:	00000000 	nop
800145a8:	afc00060 	sw	zero,96(s8)
800145ac:	3c028002 	lui	v0,0x8002
800145b0:	24425650 	addiu	v0,v0,22096
800145b4:	afc2005c 	sw	v0,92(s8)
800145b8:	0800517d 	j	800145f4 <default_alloc_pages+0xb8>
800145bc:	00000000 	nop
800145c0:	8fc2005c 	lw	v0,92(s8)
800145c4:	2442fff4 	addiu	v0,v0,-12
800145c8:	afc20058 	sw	v0,88(s8)
800145cc:	8fc20058 	lw	v0,88(s8)
800145d0:	8c430008 	lw	v1,8(v0)
800145d4:	8fc20070 	lw	v0,112(s8)
800145d8:	0062102b 	sltu	v0,v1,v0
800145dc:	14400005 	bnez	v0,800145f4 <default_alloc_pages+0xb8>
800145e0:	00000000 	nop
800145e4:	8fc20058 	lw	v0,88(s8)
800145e8:	afc20060 	sw	v0,96(s8)
800145ec:	08005187 	j	8001461c <default_alloc_pages+0xe0>
800145f0:	00000000 	nop
800145f4:	8fc2005c 	lw	v0,92(s8)
800145f8:	afc20050 	sw	v0,80(s8)
800145fc:	8fc20050 	lw	v0,80(s8)
80014600:	8c420004 	lw	v0,4(v0)
80014604:	afc2005c 	sw	v0,92(s8)
80014608:	8fc3005c 	lw	v1,92(s8)
8001460c:	3c028002 	lui	v0,0x8002
80014610:	24425650 	addiu	v0,v0,22096
80014614:	1462ffea 	bne	v1,v0,800145c0 <default_alloc_pages+0x84>
80014618:	00000000 	nop
8001461c:	8fc20060 	lw	v0,96(s8)
80014620:	10400070 	beqz	v0,800147e4 <default_alloc_pages+0x2a8>
80014624:	00000000 	nop
80014628:	8fc20060 	lw	v0,96(s8)
8001462c:	2442000c 	addiu	v0,v0,12
80014630:	afc2004c 	sw	v0,76(s8)
80014634:	8fc2004c 	lw	v0,76(s8)
80014638:	8c430000 	lw	v1,0(v0)
8001463c:	8fc2004c 	lw	v0,76(s8)
80014640:	8c420004 	lw	v0,4(v0)
80014644:	afc30044 	sw	v1,68(s8)
80014648:	afc20048 	sw	v0,72(s8)
8001464c:	8fc20044 	lw	v0,68(s8)
80014650:	8fc30048 	lw	v1,72(s8)
80014654:	ac430004 	sw	v1,4(v0)
80014658:	8fc20048 	lw	v0,72(s8)
8001465c:	8fc30044 	lw	v1,68(s8)
80014660:	ac430000 	sw	v1,0(v0)
80014664:	8fc20060 	lw	v0,96(s8)
80014668:	8c430008 	lw	v1,8(v0)
8001466c:	8fc20070 	lw	v0,112(s8)
80014670:	0043102b 	sltu	v0,v0,v1
80014674:	1040003f 	beqz	v0,80014774 <default_alloc_pages+0x238>
80014678:	00000000 	nop
8001467c:	8fc20070 	lw	v0,112(s8)
80014680:	00021080 	sll	v0,v0,0x2
80014684:	00021880 	sll	v1,v0,0x2
80014688:	00431021 	addu	v0,v0,v1
8001468c:	8fc30060 	lw	v1,96(s8)
80014690:	00621021 	addu	v0,v1,v0
80014694:	afc20054 	sw	v0,84(s8)
80014698:	8fc20060 	lw	v0,96(s8)
8001469c:	8c430008 	lw	v1,8(v0)
800146a0:	8fc20070 	lw	v0,112(s8)
800146a4:	00621823 	subu	v1,v1,v0
800146a8:	8fc20054 	lw	v0,84(s8)
800146ac:	ac430008 	sw	v1,8(v0)
800146b0:	8fc20054 	lw	v0,84(s8)
800146b4:	24420004 	addiu	v0,v0,4
800146b8:	24030001 	li	v1,1
800146bc:	afc3003c 	sw	v1,60(s8)
800146c0:	afc20040 	sw	v0,64(s8)
800146c4:	0c004fcd 	jal	80013f34 <__intr_save>
800146c8:	00000000 	nop
800146cc:	afc20038 	sw	v0,56(s8)
800146d0:	8fc20040 	lw	v0,64(s8)
800146d4:	8fc30040 	lw	v1,64(s8)
800146d8:	8c640000 	lw	a0,0(v1)
800146dc:	24050001 	li	a1,1
800146e0:	8fc3003c 	lw	v1,60(s8)
800146e4:	00651804 	sllv	v1,a1,v1
800146e8:	00831825 	or	v1,a0,v1
800146ec:	ac430000 	sw	v1,0(v0)
800146f0:	8fc40038 	lw	a0,56(s8)
800146f4:	0c004fe2 	jal	80013f88 <__intr_restore>
800146f8:	00000000 	nop
800146fc:	8fc20060 	lw	v0,96(s8)
80014700:	8c43000c 	lw	v1,12(v0)
80014704:	8fc20054 	lw	v0,84(s8)
80014708:	2442000c 	addiu	v0,v0,12
8001470c:	afc30030 	sw	v1,48(s8)
80014710:	afc20034 	sw	v0,52(s8)
80014714:	8fc20030 	lw	v0,48(s8)
80014718:	afc20028 	sw	v0,40(s8)
8001471c:	8fc20034 	lw	v0,52(s8)
80014720:	afc2002c 	sw	v0,44(s8)
80014724:	8fc20028 	lw	v0,40(s8)
80014728:	8c420004 	lw	v0,4(v0)
8001472c:	8fc3002c 	lw	v1,44(s8)
80014730:	afc3001c 	sw	v1,28(s8)
80014734:	8fc30028 	lw	v1,40(s8)
80014738:	afc30020 	sw	v1,32(s8)
8001473c:	afc20024 	sw	v0,36(s8)
80014740:	8fc20024 	lw	v0,36(s8)
80014744:	8fc3001c 	lw	v1,28(s8)
80014748:	ac430000 	sw	v1,0(v0)
8001474c:	8fc20024 	lw	v0,36(s8)
80014750:	8c430000 	lw	v1,0(v0)
80014754:	8fc20020 	lw	v0,32(s8)
80014758:	ac430004 	sw	v1,4(v0)
8001475c:	8fc2001c 	lw	v0,28(s8)
80014760:	8fc30024 	lw	v1,36(s8)
80014764:	ac430004 	sw	v1,4(v0)
80014768:	8fc2001c 	lw	v0,28(s8)
8001476c:	8fc30020 	lw	v1,32(s8)
80014770:	ac430000 	sw	v1,0(v0)
80014774:	3c028002 	lui	v0,0x8002
80014778:	24425650 	addiu	v0,v0,22096
8001477c:	8c430008 	lw	v1,8(v0)
80014780:	8fc20070 	lw	v0,112(s8)
80014784:	00621823 	subu	v1,v1,v0
80014788:	3c028002 	lui	v0,0x8002
8001478c:	24425650 	addiu	v0,v0,22096
80014790:	ac430008 	sw	v1,8(v0)
80014794:	8fc20060 	lw	v0,96(s8)
80014798:	24420004 	addiu	v0,v0,4
8001479c:	24030001 	li	v1,1
800147a0:	afc30014 	sw	v1,20(s8)
800147a4:	afc20018 	sw	v0,24(s8)
800147a8:	0c004fcd 	jal	80013f34 <__intr_save>
800147ac:	00000000 	nop
800147b0:	afc20010 	sw	v0,16(s8)
800147b4:	8fc20018 	lw	v0,24(s8)
800147b8:	8fc30018 	lw	v1,24(s8)
800147bc:	8c640000 	lw	a0,0(v1)
800147c0:	24050001 	li	a1,1
800147c4:	8fc30014 	lw	v1,20(s8)
800147c8:	00651804 	sllv	v1,a1,v1
800147cc:	00031827 	nor	v1,zero,v1
800147d0:	00831824 	and	v1,a0,v1
800147d4:	ac430000 	sw	v1,0(v0)
800147d8:	8fc40010 	lw	a0,16(s8)
800147dc:	0c004fe2 	jal	80013f88 <__intr_restore>
800147e0:	00000000 	nop
800147e4:	8fc20060 	lw	v0,96(s8)
800147e8:	03c0e821 	move	sp,s8
800147ec:	8fbf006c 	lw	ra,108(sp)
800147f0:	8fbe0068 	lw	s8,104(sp)
800147f4:	27bd0070 	addiu	sp,sp,112
800147f8:	03e00008 	jr	ra
800147fc:	00000000 	nop

80014800 <default_free_pages>:
80014800:	27bdff78 	addiu	sp,sp,-136
80014804:	afbf0084 	sw	ra,132(sp)
80014808:	afbe0080 	sw	s8,128(sp)
8001480c:	03a0f021 	move	s8,sp
80014810:	afc40088 	sw	a0,136(s8)
80014814:	afc5008c 	sw	a1,140(s8)
80014818:	8fc2008c 	lw	v0,140(s8)
8001481c:	1440000a 	bnez	v0,80014848 <default_free_pages+0x48>
80014820:	00000000 	nop
80014824:	3c028001 	lui	v0,0x8001
80014828:	24447c9c 	addiu	a0,v0,31900
8001482c:	2405008b 	li	a1,139
80014830:	3c028001 	lui	v0,0x8001
80014834:	24467cb4 	addiu	a2,v0,31924
80014838:	3c028001 	lui	v0,0x8001
8001483c:	24477d24 	addiu	a3,v0,32036
80014840:	0c00418e 	jal	80010638 <__panic>
80014844:	00000000 	nop
80014848:	8fc20088 	lw	v0,136(s8)
8001484c:	afc20078 	sw	v0,120(s8)
80014850:	08005253 	j	8001494c <default_free_pages+0x14c>
80014854:	00000000 	nop
80014858:	8fc20078 	lw	v0,120(s8)
8001485c:	24420004 	addiu	v0,v0,4
80014860:	afc0006c 	sw	zero,108(s8)
80014864:	afc20070 	sw	v0,112(s8)
80014868:	0c004fcd 	jal	80013f34 <__intr_save>
8001486c:	00000000 	nop
80014870:	afc20068 	sw	v0,104(s8)
80014874:	8fc20070 	lw	v0,112(s8)
80014878:	8c430000 	lw	v1,0(v0)
8001487c:	24040001 	li	a0,1
80014880:	8fc2006c 	lw	v0,108(s8)
80014884:	00441004 	sllv	v0,a0,v0
80014888:	00621024 	and	v0,v1,v0
8001488c:	afc20064 	sw	v0,100(s8)
80014890:	8fc40068 	lw	a0,104(s8)
80014894:	0c004fe2 	jal	80013f88 <__intr_restore>
80014898:	00000000 	nop
8001489c:	8fc20064 	lw	v0,100(s8)
800148a0:	0002102b 	sltu	v0,zero,v0
800148a4:	14400017 	bnez	v0,80014904 <default_free_pages+0x104>
800148a8:	00000000 	nop
800148ac:	8fc20078 	lw	v0,120(s8)
800148b0:	24420004 	addiu	v0,v0,4
800148b4:	24030001 	li	v1,1
800148b8:	afc3005c 	sw	v1,92(s8)
800148bc:	afc20060 	sw	v0,96(s8)
800148c0:	0c004fcd 	jal	80013f34 <__intr_save>
800148c4:	00000000 	nop
800148c8:	afc20058 	sw	v0,88(s8)
800148cc:	8fc20060 	lw	v0,96(s8)
800148d0:	8c430000 	lw	v1,0(v0)
800148d4:	24040001 	li	a0,1
800148d8:	8fc2005c 	lw	v0,92(s8)
800148dc:	00441004 	sllv	v0,a0,v0
800148e0:	00621024 	and	v0,v1,v0
800148e4:	afc20054 	sw	v0,84(s8)
800148e8:	8fc40058 	lw	a0,88(s8)
800148ec:	0c004fe2 	jal	80013f88 <__intr_restore>
800148f0:	00000000 	nop
800148f4:	8fc20054 	lw	v0,84(s8)
800148f8:	0002102b 	sltu	v0,zero,v0
800148fc:	1040000a 	beqz	v0,80014928 <default_free_pages+0x128>
80014900:	00000000 	nop
80014904:	3c028001 	lui	v0,0x8001
80014908:	24447c9c 	addiu	a0,v0,31900
8001490c:	2405008f 	li	a1,143
80014910:	3c028001 	lui	v0,0x8001
80014914:	24467cb4 	addiu	a2,v0,31924
80014918:	3c028001 	lui	v0,0x8001
8001491c:	24477d3c 	addiu	a3,v0,32060
80014920:	0c00418e 	jal	80010638 <__panic>
80014924:	00000000 	nop
80014928:	8fc20078 	lw	v0,120(s8)
8001492c:	ac400004 	sw	zero,4(v0)
80014930:	8fc40078 	lw	a0,120(s8)
80014934:	00002821 	move	a1,zero
80014938:	0c00501d 	jal	80014074 <set_page_ref>
8001493c:	00000000 	nop
80014940:	8fc20078 	lw	v0,120(s8)
80014944:	24420014 	addiu	v0,v0,20
80014948:	afc20078 	sw	v0,120(s8)
8001494c:	8fc2008c 	lw	v0,140(s8)
80014950:	00021080 	sll	v0,v0,0x2
80014954:	00021880 	sll	v1,v0,0x2
80014958:	00431021 	addu	v0,v0,v1
8001495c:	8fc30088 	lw	v1,136(s8)
80014960:	00621821 	addu	v1,v1,v0
80014964:	8fc20078 	lw	v0,120(s8)
80014968:	1462ffbb 	bne	v1,v0,80014858 <default_free_pages+0x58>
8001496c:	00000000 	nop
80014970:	8fc20088 	lw	v0,136(s8)
80014974:	8fc3008c 	lw	v1,140(s8)
80014978:	ac430008 	sw	v1,8(v0)
8001497c:	8fc20088 	lw	v0,136(s8)
80014980:	24420004 	addiu	v0,v0,4
80014984:	24030001 	li	v1,1
80014988:	afc3004c 	sw	v1,76(s8)
8001498c:	afc20050 	sw	v0,80(s8)
80014990:	0c004fcd 	jal	80013f34 <__intr_save>
80014994:	00000000 	nop
80014998:	afc20048 	sw	v0,72(s8)
8001499c:	8fc20050 	lw	v0,80(s8)
800149a0:	8fc30050 	lw	v1,80(s8)
800149a4:	8c640000 	lw	a0,0(v1)
800149a8:	24050001 	li	a1,1
800149ac:	8fc3004c 	lw	v1,76(s8)
800149b0:	00651804 	sllv	v1,a1,v1
800149b4:	00831825 	or	v1,a0,v1
800149b8:	ac430000 	sw	v1,0(v0)
800149bc:	8fc40048 	lw	a0,72(s8)
800149c0:	0c004fe2 	jal	80013f88 <__intr_restore>
800149c4:	00000000 	nop
800149c8:	3c028002 	lui	v0,0x8002
800149cc:	24425650 	addiu	v0,v0,22096
800149d0:	afc20044 	sw	v0,68(s8)
800149d4:	8fc20044 	lw	v0,68(s8)
800149d8:	8c420004 	lw	v0,4(v0)
800149dc:	afc20074 	sw	v0,116(s8)
800149e0:	080052ee 	j	80014bb8 <default_free_pages+0x3b8>
800149e4:	00000000 	nop
800149e8:	8fc20074 	lw	v0,116(s8)
800149ec:	2442fff4 	addiu	v0,v0,-12
800149f0:	afc20078 	sw	v0,120(s8)
800149f4:	8fc20074 	lw	v0,116(s8)
800149f8:	afc20040 	sw	v0,64(s8)
800149fc:	8fc20040 	lw	v0,64(s8)
80014a00:	8c420004 	lw	v0,4(v0)
80014a04:	afc20074 	sw	v0,116(s8)
80014a08:	8fc20088 	lw	v0,136(s8)
80014a0c:	8c420008 	lw	v0,8(v0)
80014a10:	00021080 	sll	v0,v0,0x2
80014a14:	00021880 	sll	v1,v0,0x2
80014a18:	00431021 	addu	v0,v0,v1
80014a1c:	8fc30088 	lw	v1,136(s8)
80014a20:	00621821 	addu	v1,v1,v0
80014a24:	8fc20078 	lw	v0,120(s8)
80014a28:	1462002d 	bne	v1,v0,80014ae0 <default_free_pages+0x2e0>
80014a2c:	00000000 	nop
80014a30:	8fc20088 	lw	v0,136(s8)
80014a34:	8c430008 	lw	v1,8(v0)
80014a38:	8fc20078 	lw	v0,120(s8)
80014a3c:	8c420008 	lw	v0,8(v0)
80014a40:	00621821 	addu	v1,v1,v0
80014a44:	8fc20088 	lw	v0,136(s8)
80014a48:	ac430008 	sw	v1,8(v0)
80014a4c:	8fc20078 	lw	v0,120(s8)
80014a50:	24420004 	addiu	v0,v0,4
80014a54:	24030001 	li	v1,1
80014a58:	afc30038 	sw	v1,56(s8)
80014a5c:	afc2003c 	sw	v0,60(s8)
80014a60:	0c004fcd 	jal	80013f34 <__intr_save>
80014a64:	00000000 	nop
80014a68:	afc20034 	sw	v0,52(s8)
80014a6c:	8fc2003c 	lw	v0,60(s8)
80014a70:	8fc3003c 	lw	v1,60(s8)
80014a74:	8c640000 	lw	a0,0(v1)
80014a78:	24050001 	li	a1,1
80014a7c:	8fc30038 	lw	v1,56(s8)
80014a80:	00651804 	sllv	v1,a1,v1
80014a84:	00031827 	nor	v1,zero,v1
80014a88:	00831824 	and	v1,a0,v1
80014a8c:	ac430000 	sw	v1,0(v0)
80014a90:	8fc40034 	lw	a0,52(s8)
80014a94:	0c004fe2 	jal	80013f88 <__intr_restore>
80014a98:	00000000 	nop
80014a9c:	8fc20078 	lw	v0,120(s8)
80014aa0:	2442000c 	addiu	v0,v0,12
80014aa4:	afc20030 	sw	v0,48(s8)
80014aa8:	8fc20030 	lw	v0,48(s8)
80014aac:	8c430000 	lw	v1,0(v0)
80014ab0:	8fc20030 	lw	v0,48(s8)
80014ab4:	8c420004 	lw	v0,4(v0)
80014ab8:	afc30028 	sw	v1,40(s8)
80014abc:	afc2002c 	sw	v0,44(s8)
80014ac0:	8fc20028 	lw	v0,40(s8)
80014ac4:	8fc3002c 	lw	v1,44(s8)
80014ac8:	ac430004 	sw	v1,4(v0)
80014acc:	8fc2002c 	lw	v0,44(s8)
80014ad0:	8fc30028 	lw	v1,40(s8)
80014ad4:	ac430000 	sw	v1,0(v0)
80014ad8:	080052ee 	j	80014bb8 <default_free_pages+0x3b8>
80014adc:	00000000 	nop
80014ae0:	8fc20078 	lw	v0,120(s8)
80014ae4:	8c420008 	lw	v0,8(v0)
80014ae8:	00021080 	sll	v0,v0,0x2
80014aec:	00021880 	sll	v1,v0,0x2
80014af0:	00431021 	addu	v0,v0,v1
80014af4:	8fc30078 	lw	v1,120(s8)
80014af8:	00621821 	addu	v1,v1,v0
80014afc:	8fc20088 	lw	v0,136(s8)
80014b00:	1462002d 	bne	v1,v0,80014bb8 <default_free_pages+0x3b8>
80014b04:	00000000 	nop
80014b08:	8fc20078 	lw	v0,120(s8)
80014b0c:	8c430008 	lw	v1,8(v0)
80014b10:	8fc20088 	lw	v0,136(s8)
80014b14:	8c420008 	lw	v0,8(v0)
80014b18:	00621821 	addu	v1,v1,v0
80014b1c:	8fc20078 	lw	v0,120(s8)
80014b20:	ac430008 	sw	v1,8(v0)
80014b24:	8fc20088 	lw	v0,136(s8)
80014b28:	24420004 	addiu	v0,v0,4
80014b2c:	24030001 	li	v1,1
80014b30:	afc30020 	sw	v1,32(s8)
80014b34:	afc20024 	sw	v0,36(s8)
80014b38:	0c004fcd 	jal	80013f34 <__intr_save>
80014b3c:	00000000 	nop
80014b40:	afc2001c 	sw	v0,28(s8)
80014b44:	8fc20024 	lw	v0,36(s8)
80014b48:	8fc30024 	lw	v1,36(s8)
80014b4c:	8c640000 	lw	a0,0(v1)
80014b50:	24050001 	li	a1,1
80014b54:	8fc30020 	lw	v1,32(s8)
80014b58:	00651804 	sllv	v1,a1,v1
80014b5c:	00031827 	nor	v1,zero,v1
80014b60:	00831824 	and	v1,a0,v1
80014b64:	ac430000 	sw	v1,0(v0)
80014b68:	8fc4001c 	lw	a0,28(s8)
80014b6c:	0c004fe2 	jal	80013f88 <__intr_restore>
80014b70:	00000000 	nop
80014b74:	8fc20078 	lw	v0,120(s8)
80014b78:	afc20088 	sw	v0,136(s8)
80014b7c:	8fc20078 	lw	v0,120(s8)
80014b80:	2442000c 	addiu	v0,v0,12
80014b84:	afc20018 	sw	v0,24(s8)
80014b88:	8fc20018 	lw	v0,24(s8)
80014b8c:	8c430000 	lw	v1,0(v0)
80014b90:	8fc20018 	lw	v0,24(s8)
80014b94:	8c420004 	lw	v0,4(v0)
80014b98:	afc30010 	sw	v1,16(s8)
80014b9c:	afc20014 	sw	v0,20(s8)
80014ba0:	8fc20010 	lw	v0,16(s8)
80014ba4:	8fc30014 	lw	v1,20(s8)
80014ba8:	ac430004 	sw	v1,4(v0)
80014bac:	8fc20014 	lw	v0,20(s8)
80014bb0:	8fc30010 	lw	v1,16(s8)
80014bb4:	ac430000 	sw	v1,0(v0)
80014bb8:	8fc30074 	lw	v1,116(s8)
80014bbc:	3c028002 	lui	v0,0x8002
80014bc0:	24425650 	addiu	v0,v0,22096
80014bc4:	1462ff88 	bne	v1,v0,800149e8 <default_free_pages+0x1e8>
80014bc8:	00000000 	nop
80014bcc:	3c028002 	lui	v0,0x8002
80014bd0:	24425650 	addiu	v0,v0,22096
80014bd4:	8c430008 	lw	v1,8(v0)
80014bd8:	8fc2008c 	lw	v0,140(s8)
80014bdc:	00621821 	addu	v1,v1,v0
80014be0:	3c028002 	lui	v0,0x8002
80014be4:	24425650 	addiu	v0,v0,22096
80014be8:	ac430008 	sw	v1,8(v0)
80014bec:	8fc20088 	lw	v0,136(s8)
80014bf0:	2442000c 	addiu	v0,v0,12
80014bf4:	3c038002 	lui	v1,0x8002
80014bf8:	24645650 	addiu	a0,v1,22096
80014bfc:	00402821 	move	a1,v0
80014c00:	0c00502a 	jal	800140a8 <default_list_add>
80014c04:	00000000 	nop
80014c08:	03c0e821 	move	sp,s8
80014c0c:	8fbf0084 	lw	ra,132(sp)
80014c10:	8fbe0080 	lw	s8,128(sp)
80014c14:	27bd0088 	addiu	sp,sp,136
80014c18:	03e00008 	jr	ra
80014c1c:	00000000 	nop

80014c20 <default_nr_free_pages>:
80014c20:	27bdfff8 	addiu	sp,sp,-8
80014c24:	afbe0004 	sw	s8,4(sp)
80014c28:	03a0f021 	move	s8,sp
80014c2c:	3c028002 	lui	v0,0x8002
80014c30:	24425650 	addiu	v0,v0,22096
80014c34:	8c420008 	lw	v0,8(v0)
80014c38:	03c0e821 	move	sp,s8
80014c3c:	8fbe0004 	lw	s8,4(sp)
80014c40:	27bd0008 	addiu	sp,sp,8
80014c44:	03e00008 	jr	ra
80014c48:	00000000 	nop

80014c4c <basic_check>:
80014c4c:	27bdffc0 	addiu	sp,sp,-64
80014c50:	afbf003c 	sw	ra,60(sp)
80014c54:	afbe0038 	sw	s8,56(sp)
80014c58:	03a0f021 	move	s8,sp
80014c5c:	afc00024 	sw	zero,36(s8)
80014c60:	8fc20024 	lw	v0,36(s8)
80014c64:	afc20028 	sw	v0,40(s8)
80014c68:	8fc20028 	lw	v0,40(s8)
80014c6c:	afc2002c 	sw	v0,44(s8)
80014c70:	24040001 	li	a0,1
80014c74:	0c004970 	jal	800125c0 <alloc_pages>
80014c78:	00000000 	nop
80014c7c:	afc2002c 	sw	v0,44(s8)
80014c80:	8fc2002c 	lw	v0,44(s8)
80014c84:	1440000a 	bnez	v0,80014cb0 <basic_check+0x64>
80014c88:	00000000 	nop
80014c8c:	3c028001 	lui	v0,0x8001
80014c90:	24447c9c 	addiu	a0,v0,31900
80014c94:	240500b7 	li	a1,183
80014c98:	3c028001 	lui	v0,0x8001
80014c9c:	24467cb4 	addiu	a2,v0,31924
80014ca0:	3c028001 	lui	v0,0x8001
80014ca4:	24477d64 	addiu	a3,v0,32100
80014ca8:	0c00418e 	jal	80010638 <__panic>
80014cac:	00000000 	nop
80014cb0:	24040001 	li	a0,1
80014cb4:	0c004970 	jal	800125c0 <alloc_pages>
80014cb8:	00000000 	nop
80014cbc:	afc20028 	sw	v0,40(s8)
80014cc0:	8fc20028 	lw	v0,40(s8)
80014cc4:	1440000a 	bnez	v0,80014cf0 <basic_check+0xa4>
80014cc8:	00000000 	nop
80014ccc:	3c028001 	lui	v0,0x8001
80014cd0:	24447c9c 	addiu	a0,v0,31900
80014cd4:	240500b8 	li	a1,184
80014cd8:	3c028001 	lui	v0,0x8001
80014cdc:	24467cb4 	addiu	a2,v0,31924
80014ce0:	3c028001 	lui	v0,0x8001
80014ce4:	24477d80 	addiu	a3,v0,32128
80014ce8:	0c00418e 	jal	80010638 <__panic>
80014cec:	00000000 	nop
80014cf0:	24040001 	li	a0,1
80014cf4:	0c004970 	jal	800125c0 <alloc_pages>
80014cf8:	00000000 	nop
80014cfc:	afc20024 	sw	v0,36(s8)
80014d00:	8fc20024 	lw	v0,36(s8)
80014d04:	1440000a 	bnez	v0,80014d30 <basic_check+0xe4>
80014d08:	00000000 	nop
80014d0c:	3c028001 	lui	v0,0x8001
80014d10:	24447c9c 	addiu	a0,v0,31900
80014d14:	240500b9 	li	a1,185
80014d18:	3c028001 	lui	v0,0x8001
80014d1c:	24467cb4 	addiu	a2,v0,31924
80014d20:	3c028001 	lui	v0,0x8001
80014d24:	24477d9c 	addiu	a3,v0,32156
80014d28:	0c00418e 	jal	80010638 <__panic>
80014d2c:	00000000 	nop
80014d30:	8fc3002c 	lw	v1,44(s8)
80014d34:	8fc20028 	lw	v0,40(s8)
80014d38:	10620009 	beq	v1,v0,80014d60 <basic_check+0x114>
80014d3c:	00000000 	nop
80014d40:	8fc3002c 	lw	v1,44(s8)
80014d44:	8fc20024 	lw	v0,36(s8)
80014d48:	10620005 	beq	v1,v0,80014d60 <basic_check+0x114>
80014d4c:	00000000 	nop
80014d50:	8fc30028 	lw	v1,40(s8)
80014d54:	8fc20024 	lw	v0,36(s8)
80014d58:	1462000a 	bne	v1,v0,80014d84 <basic_check+0x138>
80014d5c:	00000000 	nop
80014d60:	3c028001 	lui	v0,0x8001
80014d64:	24447c9c 	addiu	a0,v0,31900
80014d68:	240500bb 	li	a1,187
80014d6c:	3c028001 	lui	v0,0x8001
80014d70:	24467cb4 	addiu	a2,v0,31924
80014d74:	3c028001 	lui	v0,0x8001
80014d78:	24477db8 	addiu	a3,v0,32184
80014d7c:	0c00418e 	jal	80010638 <__panic>
80014d80:	00000000 	nop
80014d84:	8fc4002c 	lw	a0,44(s8)
80014d88:	0c005012 	jal	80014048 <page_ref>
80014d8c:	00000000 	nop
80014d90:	1440000b 	bnez	v0,80014dc0 <basic_check+0x174>
80014d94:	00000000 	nop
80014d98:	8fc40028 	lw	a0,40(s8)
80014d9c:	0c005012 	jal	80014048 <page_ref>
80014da0:	00000000 	nop
80014da4:	14400006 	bnez	v0,80014dc0 <basic_check+0x174>
80014da8:	00000000 	nop
80014dac:	8fc40024 	lw	a0,36(s8)
80014db0:	0c005012 	jal	80014048 <page_ref>
80014db4:	00000000 	nop
80014db8:	1040000a 	beqz	v0,80014de4 <basic_check+0x198>
80014dbc:	00000000 	nop
80014dc0:	3c028001 	lui	v0,0x8001
80014dc4:	24447c9c 	addiu	a0,v0,31900
80014dc8:	240500bc 	li	a1,188
80014dcc:	3c028001 	lui	v0,0x8001
80014dd0:	24467cb4 	addiu	a2,v0,31924
80014dd4:	3c028001 	lui	v0,0x8001
80014dd8:	24477ddc 	addiu	a3,v0,32220
80014ddc:	0c00418e 	jal	80010638 <__panic>
80014de0:	00000000 	nop
80014de4:	8fc4002c 	lw	a0,44(s8)
80014de8:	0c005003 	jal	8001400c <page2pa>
80014dec:	00000000 	nop
80014df0:	00401821 	move	v1,v0
80014df4:	3c028002 	lui	v0,0x8002
80014df8:	8c425644 	lw	v0,22084(v0)
80014dfc:	00021300 	sll	v0,v0,0xc
80014e00:	0062102b 	sltu	v0,v1,v0
80014e04:	1440000a 	bnez	v0,80014e30 <basic_check+0x1e4>
80014e08:	00000000 	nop
80014e0c:	3c028001 	lui	v0,0x8001
80014e10:	24447c9c 	addiu	a0,v0,31900
80014e14:	240500be 	li	a1,190
80014e18:	3c028001 	lui	v0,0x8001
80014e1c:	24467cb4 	addiu	a2,v0,31924
80014e20:	3c028001 	lui	v0,0x8001
80014e24:	24477e18 	addiu	a3,v0,32280
80014e28:	0c00418e 	jal	80010638 <__panic>
80014e2c:	00000000 	nop
80014e30:	8fc40028 	lw	a0,40(s8)
80014e34:	0c005003 	jal	8001400c <page2pa>
80014e38:	00000000 	nop
80014e3c:	00401821 	move	v1,v0
80014e40:	3c028002 	lui	v0,0x8002
80014e44:	8c425644 	lw	v0,22084(v0)
80014e48:	00021300 	sll	v0,v0,0xc
80014e4c:	0062102b 	sltu	v0,v1,v0
80014e50:	1440000a 	bnez	v0,80014e7c <basic_check+0x230>
80014e54:	00000000 	nop
80014e58:	3c028001 	lui	v0,0x8001
80014e5c:	24447c9c 	addiu	a0,v0,31900
80014e60:	240500bf 	li	a1,191
80014e64:	3c028001 	lui	v0,0x8001
80014e68:	24467cb4 	addiu	a2,v0,31924
80014e6c:	3c028001 	lui	v0,0x8001
80014e70:	24477e38 	addiu	a3,v0,32312
80014e74:	0c00418e 	jal	80010638 <__panic>
80014e78:	00000000 	nop
80014e7c:	8fc40024 	lw	a0,36(s8)
80014e80:	0c005003 	jal	8001400c <page2pa>
80014e84:	00000000 	nop
80014e88:	00401821 	move	v1,v0
80014e8c:	3c028002 	lui	v0,0x8002
80014e90:	8c425644 	lw	v0,22084(v0)
80014e94:	00021300 	sll	v0,v0,0xc
80014e98:	0062102b 	sltu	v0,v1,v0
80014e9c:	1440000a 	bnez	v0,80014ec8 <basic_check+0x27c>
80014ea0:	00000000 	nop
80014ea4:	3c028001 	lui	v0,0x8001
80014ea8:	24447c9c 	addiu	a0,v0,31900
80014eac:	240500c0 	li	a1,192
80014eb0:	3c028001 	lui	v0,0x8001
80014eb4:	24467cb4 	addiu	a2,v0,31924
80014eb8:	3c028001 	lui	v0,0x8001
80014ebc:	24477e58 	addiu	a3,v0,32344
80014ec0:	0c00418e 	jal	80010638 <__panic>
80014ec4:	00000000 	nop
80014ec8:	3c028002 	lui	v0,0x8002
80014ecc:	8c435650 	lw	v1,22096(v0)
80014ed0:	24425650 	addiu	v0,v0,22096
80014ed4:	8c420004 	lw	v0,4(v0)
80014ed8:	afc30030 	sw	v1,48(s8)
80014edc:	afc20034 	sw	v0,52(s8)
80014ee0:	3c028002 	lui	v0,0x8002
80014ee4:	24425650 	addiu	v0,v0,22096
80014ee8:	afc20018 	sw	v0,24(s8)
80014eec:	8fc20018 	lw	v0,24(s8)
80014ef0:	8fc30018 	lw	v1,24(s8)
80014ef4:	ac430004 	sw	v1,4(v0)
80014ef8:	8fc20018 	lw	v0,24(s8)
80014efc:	8c430004 	lw	v1,4(v0)
80014f00:	8fc20018 	lw	v0,24(s8)
80014f04:	ac430000 	sw	v1,0(v0)
80014f08:	3c028002 	lui	v0,0x8002
80014f0c:	24425650 	addiu	v0,v0,22096
80014f10:	afc20014 	sw	v0,20(s8)
80014f14:	8fc20014 	lw	v0,20(s8)
80014f18:	8c430004 	lw	v1,4(v0)
80014f1c:	8fc20014 	lw	v0,20(s8)
80014f20:	00621026 	xor	v0,v1,v0
80014f24:	2c420001 	sltiu	v0,v0,1
80014f28:	1440000a 	bnez	v0,80014f54 <basic_check+0x308>
80014f2c:	00000000 	nop
80014f30:	3c028001 	lui	v0,0x8001
80014f34:	24447c9c 	addiu	a0,v0,31900
80014f38:	240500c4 	li	a1,196
80014f3c:	3c028001 	lui	v0,0x8001
80014f40:	24467cb4 	addiu	a2,v0,31924
80014f44:	3c028001 	lui	v0,0x8001
80014f48:	24477e78 	addiu	a3,v0,32376
80014f4c:	0c00418e 	jal	80010638 <__panic>
80014f50:	00000000 	nop
80014f54:	3c028002 	lui	v0,0x8002
80014f58:	24425650 	addiu	v0,v0,22096
80014f5c:	8c420008 	lw	v0,8(v0)
80014f60:	afc20020 	sw	v0,32(s8)
80014f64:	3c028002 	lui	v0,0x8002
80014f68:	24425650 	addiu	v0,v0,22096
80014f6c:	ac400008 	sw	zero,8(v0)
80014f70:	24040001 	li	a0,1
80014f74:	0c004970 	jal	800125c0 <alloc_pages>
80014f78:	00000000 	nop
80014f7c:	1040000a 	beqz	v0,80014fa8 <basic_check+0x35c>
80014f80:	00000000 	nop
80014f84:	3c028001 	lui	v0,0x8001
80014f88:	24447c9c 	addiu	a0,v0,31900
80014f8c:	240500c9 	li	a1,201
80014f90:	3c028001 	lui	v0,0x8001
80014f94:	24467cb4 	addiu	a2,v0,31924
80014f98:	3c028001 	lui	v0,0x8001
80014f9c:	24477e90 	addiu	a3,v0,32400
80014fa0:	0c00418e 	jal	80010638 <__panic>
80014fa4:	00000000 	nop
80014fa8:	8fc4002c 	lw	a0,44(s8)
80014fac:	24050001 	li	a1,1
80014fb0:	0c00498a 	jal	80012628 <free_pages>
80014fb4:	00000000 	nop
80014fb8:	8fc40028 	lw	a0,40(s8)
80014fbc:	24050001 	li	a1,1
80014fc0:	0c00498a 	jal	80012628 <free_pages>
80014fc4:	00000000 	nop
80014fc8:	8fc40024 	lw	a0,36(s8)
80014fcc:	24050001 	li	a1,1
80014fd0:	0c00498a 	jal	80012628 <free_pages>
80014fd4:	00000000 	nop
80014fd8:	3c028002 	lui	v0,0x8002
80014fdc:	24425650 	addiu	v0,v0,22096
80014fe0:	8c430008 	lw	v1,8(v0)
80014fe4:	24020003 	li	v0,3
80014fe8:	1062000a 	beq	v1,v0,80015014 <basic_check+0x3c8>
80014fec:	00000000 	nop
80014ff0:	3c028001 	lui	v0,0x8001
80014ff4:	24447c9c 	addiu	a0,v0,31900
80014ff8:	240500ce 	li	a1,206
80014ffc:	3c028001 	lui	v0,0x8001
80015000:	24467cb4 	addiu	a2,v0,31924
80015004:	3c028001 	lui	v0,0x8001
80015008:	24477ea8 	addiu	a3,v0,32424
8001500c:	0c00418e 	jal	80010638 <__panic>
80015010:	00000000 	nop
80015014:	24040001 	li	a0,1
80015018:	0c004970 	jal	800125c0 <alloc_pages>
8001501c:	00000000 	nop
80015020:	afc2002c 	sw	v0,44(s8)
80015024:	8fc2002c 	lw	v0,44(s8)
80015028:	1440000a 	bnez	v0,80015054 <basic_check+0x408>
8001502c:	00000000 	nop
80015030:	3c028001 	lui	v0,0x8001
80015034:	24447c9c 	addiu	a0,v0,31900
80015038:	240500d0 	li	a1,208
8001503c:	3c028001 	lui	v0,0x8001
80015040:	24467cb4 	addiu	a2,v0,31924
80015044:	3c028001 	lui	v0,0x8001
80015048:	24477d64 	addiu	a3,v0,32100
8001504c:	0c00418e 	jal	80010638 <__panic>
80015050:	00000000 	nop
80015054:	24040001 	li	a0,1
80015058:	0c004970 	jal	800125c0 <alloc_pages>
8001505c:	00000000 	nop
80015060:	afc20028 	sw	v0,40(s8)
80015064:	8fc20028 	lw	v0,40(s8)
80015068:	1440000a 	bnez	v0,80015094 <basic_check+0x448>
8001506c:	00000000 	nop
80015070:	3c028001 	lui	v0,0x8001
80015074:	24447c9c 	addiu	a0,v0,31900
80015078:	240500d1 	li	a1,209
8001507c:	3c028001 	lui	v0,0x8001
80015080:	24467cb4 	addiu	a2,v0,31924
80015084:	3c028001 	lui	v0,0x8001
80015088:	24477d80 	addiu	a3,v0,32128
8001508c:	0c00418e 	jal	80010638 <__panic>
80015090:	00000000 	nop
80015094:	24040001 	li	a0,1
80015098:	0c004970 	jal	800125c0 <alloc_pages>
8001509c:	00000000 	nop
800150a0:	afc20024 	sw	v0,36(s8)
800150a4:	8fc20024 	lw	v0,36(s8)
800150a8:	1440000a 	bnez	v0,800150d4 <basic_check+0x488>
800150ac:	00000000 	nop
800150b0:	3c028001 	lui	v0,0x8001
800150b4:	24447c9c 	addiu	a0,v0,31900
800150b8:	240500d2 	li	a1,210
800150bc:	3c028001 	lui	v0,0x8001
800150c0:	24467cb4 	addiu	a2,v0,31924
800150c4:	3c028001 	lui	v0,0x8001
800150c8:	24477d9c 	addiu	a3,v0,32156
800150cc:	0c00418e 	jal	80010638 <__panic>
800150d0:	00000000 	nop
800150d4:	24040001 	li	a0,1
800150d8:	0c004970 	jal	800125c0 <alloc_pages>
800150dc:	00000000 	nop
800150e0:	1040000a 	beqz	v0,8001510c <basic_check+0x4c0>
800150e4:	00000000 	nop
800150e8:	3c028001 	lui	v0,0x8001
800150ec:	24447c9c 	addiu	a0,v0,31900
800150f0:	240500d4 	li	a1,212
800150f4:	3c028001 	lui	v0,0x8001
800150f8:	24467cb4 	addiu	a2,v0,31924
800150fc:	3c028001 	lui	v0,0x8001
80015100:	24477e90 	addiu	a3,v0,32400
80015104:	0c00418e 	jal	80010638 <__panic>
80015108:	00000000 	nop
8001510c:	8fc4002c 	lw	a0,44(s8)
80015110:	24050001 	li	a1,1
80015114:	0c00498a 	jal	80012628 <free_pages>
80015118:	00000000 	nop
8001511c:	3c028002 	lui	v0,0x8002
80015120:	24425650 	addiu	v0,v0,22096
80015124:	afc20010 	sw	v0,16(s8)
80015128:	8fc20010 	lw	v0,16(s8)
8001512c:	8c430004 	lw	v1,4(v0)
80015130:	8fc20010 	lw	v0,16(s8)
80015134:	00621026 	xor	v0,v1,v0
80015138:	2c420001 	sltiu	v0,v0,1
8001513c:	1040000a 	beqz	v0,80015168 <basic_check+0x51c>
80015140:	00000000 	nop
80015144:	3c028001 	lui	v0,0x8001
80015148:	24447c9c 	addiu	a0,v0,31900
8001514c:	240500d7 	li	a1,215
80015150:	3c028001 	lui	v0,0x8001
80015154:	24467cb4 	addiu	a2,v0,31924
80015158:	3c028001 	lui	v0,0x8001
8001515c:	24477eb8 	addiu	a3,v0,32440
80015160:	0c00418e 	jal	80010638 <__panic>
80015164:	00000000 	nop
80015168:	24040001 	li	a0,1
8001516c:	0c004970 	jal	800125c0 <alloc_pages>
80015170:	00000000 	nop
80015174:	afc2001c 	sw	v0,28(s8)
80015178:	8fc3001c 	lw	v1,28(s8)
8001517c:	8fc2002c 	lw	v0,44(s8)
80015180:	1062000a 	beq	v1,v0,800151ac <basic_check+0x560>
80015184:	00000000 	nop
80015188:	3c028001 	lui	v0,0x8001
8001518c:	24447c9c 	addiu	a0,v0,31900
80015190:	240500da 	li	a1,218
80015194:	3c028001 	lui	v0,0x8001
80015198:	24467cb4 	addiu	a2,v0,31924
8001519c:	3c028001 	lui	v0,0x8001
800151a0:	24477ed0 	addiu	a3,v0,32464
800151a4:	0c00418e 	jal	80010638 <__panic>
800151a8:	00000000 	nop
800151ac:	24040001 	li	a0,1
800151b0:	0c004970 	jal	800125c0 <alloc_pages>
800151b4:	00000000 	nop
800151b8:	1040000a 	beqz	v0,800151e4 <basic_check+0x598>
800151bc:	00000000 	nop
800151c0:	3c028001 	lui	v0,0x8001
800151c4:	24447c9c 	addiu	a0,v0,31900
800151c8:	240500db 	li	a1,219
800151cc:	3c028001 	lui	v0,0x8001
800151d0:	24467cb4 	addiu	a2,v0,31924
800151d4:	3c028001 	lui	v0,0x8001
800151d8:	24477e90 	addiu	a3,v0,32400
800151dc:	0c00418e 	jal	80010638 <__panic>
800151e0:	00000000 	nop
800151e4:	3c028002 	lui	v0,0x8002
800151e8:	24425650 	addiu	v0,v0,22096
800151ec:	8c420008 	lw	v0,8(v0)
800151f0:	1040000a 	beqz	v0,8001521c <basic_check+0x5d0>
800151f4:	00000000 	nop
800151f8:	3c028001 	lui	v0,0x8001
800151fc:	24447c9c 	addiu	a0,v0,31900
80015200:	240500dd 	li	a1,221
80015204:	3c028001 	lui	v0,0x8001
80015208:	24467cb4 	addiu	a2,v0,31924
8001520c:	3c028001 	lui	v0,0x8001
80015210:	24477eec 	addiu	a3,v0,32492
80015214:	0c00418e 	jal	80010638 <__panic>
80015218:	00000000 	nop
8001521c:	3c028002 	lui	v0,0x8002
80015220:	8fc40030 	lw	a0,48(s8)
80015224:	8fc30034 	lw	v1,52(s8)
80015228:	ac445650 	sw	a0,22096(v0)
8001522c:	24425650 	addiu	v0,v0,22096
80015230:	ac430004 	sw	v1,4(v0)
80015234:	3c028002 	lui	v0,0x8002
80015238:	24425650 	addiu	v0,v0,22096
8001523c:	8fc30020 	lw	v1,32(s8)
80015240:	ac430008 	sw	v1,8(v0)
80015244:	8fc4001c 	lw	a0,28(s8)
80015248:	24050001 	li	a1,1
8001524c:	0c00498a 	jal	80012628 <free_pages>
80015250:	00000000 	nop
80015254:	8fc40028 	lw	a0,40(s8)
80015258:	24050001 	li	a1,1
8001525c:	0c00498a 	jal	80012628 <free_pages>
80015260:	00000000 	nop
80015264:	8fc40024 	lw	a0,36(s8)
80015268:	24050001 	li	a1,1
8001526c:	0c00498a 	jal	80012628 <free_pages>
80015270:	00000000 	nop
80015274:	03c0e821 	move	sp,s8
80015278:	8fbf003c 	lw	ra,60(sp)
8001527c:	8fbe0038 	lw	s8,56(sp)
80015280:	27bd0040 	addiu	sp,sp,64
80015284:	03e00008 	jr	ra
80015288:	00000000 	nop

8001528c <default_check>:
8001528c:	27bdff50 	addiu	sp,sp,-176
80015290:	afbf00ac 	sw	ra,172(sp)
80015294:	afbe00a8 	sw	s8,168(sp)
80015298:	afb000a4 	sw	s0,164(sp)
8001529c:	03a0f021 	move	s8,sp
800152a0:	afc00090 	sw	zero,144(s8)
800152a4:	afc0008c 	sw	zero,140(s8)
800152a8:	3c028002 	lui	v0,0x8002
800152ac:	24425650 	addiu	v0,v0,22096
800152b0:	afc20088 	sw	v0,136(s8)
800152b4:	080054d9 	j	80015364 <default_check+0xd8>
800152b8:	00000000 	nop
800152bc:	8fc20088 	lw	v0,136(s8)
800152c0:	2442fff4 	addiu	v0,v0,-12
800152c4:	afc20074 	sw	v0,116(s8)
800152c8:	8fc20074 	lw	v0,116(s8)
800152cc:	24420004 	addiu	v0,v0,4
800152d0:	24030001 	li	v1,1
800152d4:	afc30068 	sw	v1,104(s8)
800152d8:	afc2006c 	sw	v0,108(s8)
800152dc:	0c004fcd 	jal	80013f34 <__intr_save>
800152e0:	00000000 	nop
800152e4:	afc20064 	sw	v0,100(s8)
800152e8:	8fc2006c 	lw	v0,108(s8)
800152ec:	8c430000 	lw	v1,0(v0)
800152f0:	24040001 	li	a0,1
800152f4:	8fc20068 	lw	v0,104(s8)
800152f8:	00441004 	sllv	v0,a0,v0
800152fc:	00621024 	and	v0,v1,v0
80015300:	afc20060 	sw	v0,96(s8)
80015304:	8fc40064 	lw	a0,100(s8)
80015308:	0c004fe2 	jal	80013f88 <__intr_restore>
8001530c:	00000000 	nop
80015310:	8fc20060 	lw	v0,96(s8)
80015314:	0002102b 	sltu	v0,zero,v0
80015318:	1440000a 	bnez	v0,80015344 <default_check+0xb8>
8001531c:	00000000 	nop
80015320:	3c028001 	lui	v0,0x8001
80015324:	24447c9c 	addiu	a0,v0,31900
80015328:	240500ee 	li	a1,238
8001532c:	3c028001 	lui	v0,0x8001
80015330:	24467cb4 	addiu	a2,v0,31924
80015334:	3c028001 	lui	v0,0x8001
80015338:	24477efc 	addiu	a3,v0,32508
8001533c:	0c00418e 	jal	80010638 <__panic>
80015340:	00000000 	nop
80015344:	8fc20090 	lw	v0,144(s8)
80015348:	24420001 	addiu	v0,v0,1
8001534c:	afc20090 	sw	v0,144(s8)
80015350:	8fc20074 	lw	v0,116(s8)
80015354:	8c430008 	lw	v1,8(v0)
80015358:	8fc2008c 	lw	v0,140(s8)
8001535c:	00621021 	addu	v0,v1,v0
80015360:	afc2008c 	sw	v0,140(s8)
80015364:	8fc20088 	lw	v0,136(s8)
80015368:	afc2005c 	sw	v0,92(s8)
8001536c:	8fc2005c 	lw	v0,92(s8)
80015370:	8c420004 	lw	v0,4(v0)
80015374:	afc20088 	sw	v0,136(s8)
80015378:	8fc30088 	lw	v1,136(s8)
8001537c:	3c028002 	lui	v0,0x8002
80015380:	24425650 	addiu	v0,v0,22096
80015384:	1462ffcd 	bne	v1,v0,800152bc <default_check+0x30>
80015388:	00000000 	nop
8001538c:	8fd0008c 	lw	s0,140(s8)
80015390:	0c0049a3 	jal	8001268c <nr_free_pages>
80015394:	00000000 	nop
80015398:	1202000a 	beq	s0,v0,800153c4 <default_check+0x138>
8001539c:	00000000 	nop
800153a0:	3c028001 	lui	v0,0x8001
800153a4:	24447c9c 	addiu	a0,v0,31900
800153a8:	240500f1 	li	a1,241
800153ac:	3c028001 	lui	v0,0x8001
800153b0:	24467cb4 	addiu	a2,v0,31924
800153b4:	3c028001 	lui	v0,0x8001
800153b8:	24477f0c 	addiu	a3,v0,32524
800153bc:	0c00418e 	jal	80010638 <__panic>
800153c0:	00000000 	nop
800153c4:	0c005313 	jal	80014c4c <basic_check>
800153c8:	00000000 	nop
800153cc:	24040005 	li	a0,5
800153d0:	0c004970 	jal	800125c0 <alloc_pages>
800153d4:	00000000 	nop
800153d8:	afc20084 	sw	v0,132(s8)
800153dc:	8fc20084 	lw	v0,132(s8)
800153e0:	1440000a 	bnez	v0,8001540c <default_check+0x180>
800153e4:	00000000 	nop
800153e8:	3c028001 	lui	v0,0x8001
800153ec:	24447c9c 	addiu	a0,v0,31900
800153f0:	240500f6 	li	a1,246
800153f4:	3c028001 	lui	v0,0x8001
800153f8:	24467cb4 	addiu	a2,v0,31924
800153fc:	3c028001 	lui	v0,0x8001
80015400:	24477f28 	addiu	a3,v0,32552
80015404:	0c00418e 	jal	80010638 <__panic>
80015408:	00000000 	nop
8001540c:	8fc20084 	lw	v0,132(s8)
80015410:	24420004 	addiu	v0,v0,4
80015414:	24030001 	li	v1,1
80015418:	afc30054 	sw	v1,84(s8)
8001541c:	afc20058 	sw	v0,88(s8)
80015420:	0c004fcd 	jal	80013f34 <__intr_save>
80015424:	00000000 	nop
80015428:	afc20050 	sw	v0,80(s8)
8001542c:	8fc20058 	lw	v0,88(s8)
80015430:	8c430000 	lw	v1,0(v0)
80015434:	24040001 	li	a0,1
80015438:	8fc20054 	lw	v0,84(s8)
8001543c:	00441004 	sllv	v0,a0,v0
80015440:	00621024 	and	v0,v1,v0
80015444:	afc2004c 	sw	v0,76(s8)
80015448:	8fc40050 	lw	a0,80(s8)
8001544c:	0c004fe2 	jal	80013f88 <__intr_restore>
80015450:	00000000 	nop
80015454:	8fc2004c 	lw	v0,76(s8)
80015458:	0002102b 	sltu	v0,zero,v0
8001545c:	1040000a 	beqz	v0,80015488 <default_check+0x1fc>
80015460:	00000000 	nop
80015464:	3c028001 	lui	v0,0x8001
80015468:	24447c9c 	addiu	a0,v0,31900
8001546c:	240500f7 	li	a1,247
80015470:	3c028001 	lui	v0,0x8001
80015474:	24467cb4 	addiu	a2,v0,31924
80015478:	3c028001 	lui	v0,0x8001
8001547c:	24477f34 	addiu	a3,v0,32564
80015480:	0c00418e 	jal	80010638 <__panic>
80015484:	00000000 	nop
80015488:	3c028002 	lui	v0,0x8002
8001548c:	8c435650 	lw	v1,22096(v0)
80015490:	24425650 	addiu	v0,v0,22096
80015494:	8c420004 	lw	v0,4(v0)
80015498:	afc30094 	sw	v1,148(s8)
8001549c:	afc20098 	sw	v0,152(s8)
800154a0:	3c028002 	lui	v0,0x8002
800154a4:	24425650 	addiu	v0,v0,22096
800154a8:	afc20048 	sw	v0,72(s8)
800154ac:	8fc20048 	lw	v0,72(s8)
800154b0:	8fc30048 	lw	v1,72(s8)
800154b4:	ac430004 	sw	v1,4(v0)
800154b8:	8fc20048 	lw	v0,72(s8)
800154bc:	8c430004 	lw	v1,4(v0)
800154c0:	8fc20048 	lw	v0,72(s8)
800154c4:	ac430000 	sw	v1,0(v0)
800154c8:	3c028002 	lui	v0,0x8002
800154cc:	24425650 	addiu	v0,v0,22096
800154d0:	afc20044 	sw	v0,68(s8)
800154d4:	8fc20044 	lw	v0,68(s8)
800154d8:	8c430004 	lw	v1,4(v0)
800154dc:	8fc20044 	lw	v0,68(s8)
800154e0:	00621026 	xor	v0,v1,v0
800154e4:	2c420001 	sltiu	v0,v0,1
800154e8:	1440000a 	bnez	v0,80015514 <default_check+0x288>
800154ec:	00000000 	nop
800154f0:	3c028001 	lui	v0,0x8001
800154f4:	24447c9c 	addiu	a0,v0,31900
800154f8:	240500fb 	li	a1,251
800154fc:	3c028001 	lui	v0,0x8001
80015500:	24467cb4 	addiu	a2,v0,31924
80015504:	3c028001 	lui	v0,0x8001
80015508:	24477e78 	addiu	a3,v0,32376
8001550c:	0c00418e 	jal	80010638 <__panic>
80015510:	00000000 	nop
80015514:	24040001 	li	a0,1
80015518:	0c004970 	jal	800125c0 <alloc_pages>
8001551c:	00000000 	nop
80015520:	1040000a 	beqz	v0,8001554c <default_check+0x2c0>
80015524:	00000000 	nop
80015528:	3c028001 	lui	v0,0x8001
8001552c:	24447c9c 	addiu	a0,v0,31900
80015530:	240500fc 	li	a1,252
80015534:	3c028001 	lui	v0,0x8001
80015538:	24467cb4 	addiu	a2,v0,31924
8001553c:	3c028001 	lui	v0,0x8001
80015540:	24477e90 	addiu	a3,v0,32400
80015544:	0c00418e 	jal	80010638 <__panic>
80015548:	00000000 	nop
8001554c:	3c028002 	lui	v0,0x8002
80015550:	24425650 	addiu	v0,v0,22096
80015554:	8c420008 	lw	v0,8(v0)
80015558:	afc20078 	sw	v0,120(s8)
8001555c:	3c028002 	lui	v0,0x8002
80015560:	24425650 	addiu	v0,v0,22096
80015564:	ac400008 	sw	zero,8(v0)
80015568:	8fc20084 	lw	v0,132(s8)
8001556c:	24420028 	addiu	v0,v0,40
80015570:	00402021 	move	a0,v0
80015574:	24050003 	li	a1,3
80015578:	0c00498a 	jal	80012628 <free_pages>
8001557c:	00000000 	nop
80015580:	24040004 	li	a0,4
80015584:	0c004970 	jal	800125c0 <alloc_pages>
80015588:	00000000 	nop
8001558c:	1040000a 	beqz	v0,800155b8 <default_check+0x32c>
80015590:	00000000 	nop
80015594:	3c028001 	lui	v0,0x8001
80015598:	24447c9c 	addiu	a0,v0,31900
8001559c:	24050102 	li	a1,258
800155a0:	3c028001 	lui	v0,0x8001
800155a4:	24467cb4 	addiu	a2,v0,31924
800155a8:	3c028001 	lui	v0,0x8001
800155ac:	24477f48 	addiu	a3,v0,32584
800155b0:	0c00418e 	jal	80010638 <__panic>
800155b4:	00000000 	nop
800155b8:	8fc20084 	lw	v0,132(s8)
800155bc:	24420028 	addiu	v0,v0,40
800155c0:	24420004 	addiu	v0,v0,4
800155c4:	24030001 	li	v1,1
800155c8:	afc3003c 	sw	v1,60(s8)
800155cc:	afc20040 	sw	v0,64(s8)
800155d0:	0c004fcd 	jal	80013f34 <__intr_save>
800155d4:	00000000 	nop
800155d8:	afc20038 	sw	v0,56(s8)
800155dc:	8fc20040 	lw	v0,64(s8)
800155e0:	8c430000 	lw	v1,0(v0)
800155e4:	24040001 	li	a0,1
800155e8:	8fc2003c 	lw	v0,60(s8)
800155ec:	00441004 	sllv	v0,a0,v0
800155f0:	00621024 	and	v0,v1,v0
800155f4:	afc20034 	sw	v0,52(s8)
800155f8:	8fc40038 	lw	a0,56(s8)
800155fc:	0c004fe2 	jal	80013f88 <__intr_restore>
80015600:	00000000 	nop
80015604:	8fc20034 	lw	v0,52(s8)
80015608:	0002102b 	sltu	v0,zero,v0
8001560c:	10400007 	beqz	v0,8001562c <default_check+0x3a0>
80015610:	00000000 	nop
80015614:	8fc20084 	lw	v0,132(s8)
80015618:	24420028 	addiu	v0,v0,40
8001561c:	8c430008 	lw	v1,8(v0)
80015620:	24020003 	li	v0,3
80015624:	1062000a 	beq	v1,v0,80015650 <default_check+0x3c4>
80015628:	00000000 	nop
8001562c:	3c028001 	lui	v0,0x8001
80015630:	24447c9c 	addiu	a0,v0,31900
80015634:	24050103 	li	a1,259
80015638:	3c028001 	lui	v0,0x8001
8001563c:	24467cb4 	addiu	a2,v0,31924
80015640:	3c028001 	lui	v0,0x8001
80015644:	24477f60 	addiu	a3,v0,32608
80015648:	0c00418e 	jal	80010638 <__panic>
8001564c:	00000000 	nop
80015650:	24040003 	li	a0,3
80015654:	0c004970 	jal	800125c0 <alloc_pages>
80015658:	00000000 	nop
8001565c:	afc20080 	sw	v0,128(s8)
80015660:	8fc20080 	lw	v0,128(s8)
80015664:	1440000a 	bnez	v0,80015690 <default_check+0x404>
80015668:	00000000 	nop
8001566c:	3c028001 	lui	v0,0x8001
80015670:	24447c9c 	addiu	a0,v0,31900
80015674:	24050104 	li	a1,260
80015678:	3c028001 	lui	v0,0x8001
8001567c:	24467cb4 	addiu	a2,v0,31924
80015680:	3c028001 	lui	v0,0x8001
80015684:	24477f8c 	addiu	a3,v0,32652
80015688:	0c00418e 	jal	80010638 <__panic>
8001568c:	00000000 	nop
80015690:	24040001 	li	a0,1
80015694:	0c004970 	jal	800125c0 <alloc_pages>
80015698:	00000000 	nop
8001569c:	1040000a 	beqz	v0,800156c8 <default_check+0x43c>
800156a0:	00000000 	nop
800156a4:	3c028001 	lui	v0,0x8001
800156a8:	24447c9c 	addiu	a0,v0,31900
800156ac:	24050105 	li	a1,261
800156b0:	3c028001 	lui	v0,0x8001
800156b4:	24467cb4 	addiu	a2,v0,31924
800156b8:	3c028001 	lui	v0,0x8001
800156bc:	24477e90 	addiu	a3,v0,32400
800156c0:	0c00418e 	jal	80010638 <__panic>
800156c4:	00000000 	nop
800156c8:	8fc20084 	lw	v0,132(s8)
800156cc:	24430028 	addiu	v1,v0,40
800156d0:	8fc20080 	lw	v0,128(s8)
800156d4:	1062000a 	beq	v1,v0,80015700 <default_check+0x474>
800156d8:	00000000 	nop
800156dc:	3c028001 	lui	v0,0x8001
800156e0:	24447c9c 	addiu	a0,v0,31900
800156e4:	24050106 	li	a1,262
800156e8:	3c028001 	lui	v0,0x8001
800156ec:	24467cb4 	addiu	a2,v0,31924
800156f0:	3c028001 	lui	v0,0x8001
800156f4:	24477fac 	addiu	a3,v0,32684
800156f8:	0c00418e 	jal	80010638 <__panic>
800156fc:	00000000 	nop
80015700:	8fc20084 	lw	v0,132(s8)
80015704:	24420014 	addiu	v0,v0,20
80015708:	afc2007c 	sw	v0,124(s8)
8001570c:	8fc40084 	lw	a0,132(s8)
80015710:	24050001 	li	a1,1
80015714:	0c00498a 	jal	80012628 <free_pages>
80015718:	00000000 	nop
8001571c:	8fc40080 	lw	a0,128(s8)
80015720:	24050003 	li	a1,3
80015724:	0c00498a 	jal	80012628 <free_pages>
80015728:	00000000 	nop
8001572c:	8fc20084 	lw	v0,132(s8)
80015730:	24420004 	addiu	v0,v0,4
80015734:	24030001 	li	v1,1
80015738:	afc3002c 	sw	v1,44(s8)
8001573c:	afc20030 	sw	v0,48(s8)
80015740:	0c004fcd 	jal	80013f34 <__intr_save>
80015744:	00000000 	nop
80015748:	afc20028 	sw	v0,40(s8)
8001574c:	8fc20030 	lw	v0,48(s8)
80015750:	8c430000 	lw	v1,0(v0)
80015754:	24040001 	li	a0,1
80015758:	8fc2002c 	lw	v0,44(s8)
8001575c:	00441004 	sllv	v0,a0,v0
80015760:	00621024 	and	v0,v1,v0
80015764:	afc20024 	sw	v0,36(s8)
80015768:	8fc40028 	lw	a0,40(s8)
8001576c:	0c004fe2 	jal	80013f88 <__intr_restore>
80015770:	00000000 	nop
80015774:	8fc20024 	lw	v0,36(s8)
80015778:	0002102b 	sltu	v0,zero,v0
8001577c:	10400006 	beqz	v0,80015798 <default_check+0x50c>
80015780:	00000000 	nop
80015784:	8fc20084 	lw	v0,132(s8)
80015788:	8c430008 	lw	v1,8(v0)
8001578c:	24020001 	li	v0,1
80015790:	1062000a 	beq	v1,v0,800157bc <default_check+0x530>
80015794:	00000000 	nop
80015798:	3c028001 	lui	v0,0x8001
8001579c:	24447c9c 	addiu	a0,v0,31900
800157a0:	2405010b 	li	a1,267
800157a4:	3c028001 	lui	v0,0x8001
800157a8:	24467cb4 	addiu	a2,v0,31924
800157ac:	3c028001 	lui	v0,0x8001
800157b0:	24477fbc 	addiu	a3,v0,32700
800157b4:	0c00418e 	jal	80010638 <__panic>
800157b8:	00000000 	nop
800157bc:	8fc20080 	lw	v0,128(s8)
800157c0:	24420004 	addiu	v0,v0,4
800157c4:	24030001 	li	v1,1
800157c8:	afc3001c 	sw	v1,28(s8)
800157cc:	afc20020 	sw	v0,32(s8)
800157d0:	0c004fcd 	jal	80013f34 <__intr_save>
800157d4:	00000000 	nop
800157d8:	afc20018 	sw	v0,24(s8)
800157dc:	8fc20020 	lw	v0,32(s8)
800157e0:	8c430000 	lw	v1,0(v0)
800157e4:	24040001 	li	a0,1
800157e8:	8fc2001c 	lw	v0,28(s8)
800157ec:	00441004 	sllv	v0,a0,v0
800157f0:	00621024 	and	v0,v1,v0
800157f4:	afc20014 	sw	v0,20(s8)
800157f8:	8fc40018 	lw	a0,24(s8)
800157fc:	0c004fe2 	jal	80013f88 <__intr_restore>
80015800:	00000000 	nop
80015804:	8fc20014 	lw	v0,20(s8)
80015808:	0002102b 	sltu	v0,zero,v0
8001580c:	10400006 	beqz	v0,80015828 <default_check+0x59c>
80015810:	00000000 	nop
80015814:	8fc20080 	lw	v0,128(s8)
80015818:	8c430008 	lw	v1,8(v0)
8001581c:	24020003 	li	v0,3
80015820:	1062000a 	beq	v1,v0,8001584c <default_check+0x5c0>
80015824:	00000000 	nop
80015828:	3c028001 	lui	v0,0x8001
8001582c:	24447c9c 	addiu	a0,v0,31900
80015830:	2405010c 	li	a1,268
80015834:	3c028001 	lui	v0,0x8001
80015838:	24467cb4 	addiu	a2,v0,31924
8001583c:	3c028001 	lui	v0,0x8001
80015840:	24477fe4 	addiu	a3,v0,32740
80015844:	0c00418e 	jal	80010638 <__panic>
80015848:	00000000 	nop
8001584c:	24040001 	li	a0,1
80015850:	0c004970 	jal	800125c0 <alloc_pages>
80015854:	00000000 	nop
80015858:	afc20084 	sw	v0,132(s8)
8001585c:	8fc2007c 	lw	v0,124(s8)
80015860:	2442ffec 	addiu	v0,v0,-20
80015864:	8fc30084 	lw	v1,132(s8)
80015868:	1062000a 	beq	v1,v0,80015894 <default_check+0x608>
8001586c:	00000000 	nop
80015870:	3c028001 	lui	v0,0x8001
80015874:	24447c9c 	addiu	a0,v0,31900
80015878:	2405010e 	li	a1,270
8001587c:	3c028001 	lui	v0,0x8001
80015880:	24467cb4 	addiu	a2,v0,31924
80015884:	3c028002 	lui	v0,0x8002
80015888:	2447800c 	addiu	a3,v0,-32756
8001588c:	0c00418e 	jal	80010638 <__panic>
80015890:	00000000 	nop
80015894:	8fc40084 	lw	a0,132(s8)
80015898:	24050001 	li	a1,1
8001589c:	0c00498a 	jal	80012628 <free_pages>
800158a0:	00000000 	nop
800158a4:	24040002 	li	a0,2
800158a8:	0c004970 	jal	800125c0 <alloc_pages>
800158ac:	00000000 	nop
800158b0:	afc20084 	sw	v0,132(s8)
800158b4:	8fc2007c 	lw	v0,124(s8)
800158b8:	24420014 	addiu	v0,v0,20
800158bc:	8fc30084 	lw	v1,132(s8)
800158c0:	1062000a 	beq	v1,v0,800158ec <default_check+0x660>
800158c4:	00000000 	nop
800158c8:	3c028001 	lui	v0,0x8001
800158cc:	24447c9c 	addiu	a0,v0,31900
800158d0:	24050110 	li	a1,272
800158d4:	3c028001 	lui	v0,0x8001
800158d8:	24467cb4 	addiu	a2,v0,31924
800158dc:	3c028002 	lui	v0,0x8002
800158e0:	2447802c 	addiu	a3,v0,-32724
800158e4:	0c00418e 	jal	80010638 <__panic>
800158e8:	00000000 	nop
800158ec:	8fc40084 	lw	a0,132(s8)
800158f0:	24050002 	li	a1,2
800158f4:	0c00498a 	jal	80012628 <free_pages>
800158f8:	00000000 	nop
800158fc:	8fc4007c 	lw	a0,124(s8)
80015900:	24050001 	li	a1,1
80015904:	0c00498a 	jal	80012628 <free_pages>
80015908:	00000000 	nop
8001590c:	24040005 	li	a0,5
80015910:	0c004970 	jal	800125c0 <alloc_pages>
80015914:	00000000 	nop
80015918:	afc20084 	sw	v0,132(s8)
8001591c:	8fc20084 	lw	v0,132(s8)
80015920:	1440000a 	bnez	v0,8001594c <default_check+0x6c0>
80015924:	00000000 	nop
80015928:	3c028001 	lui	v0,0x8001
8001592c:	24447c9c 	addiu	a0,v0,31900
80015930:	24050115 	li	a1,277
80015934:	3c028001 	lui	v0,0x8001
80015938:	24467cb4 	addiu	a2,v0,31924
8001593c:	3c028002 	lui	v0,0x8002
80015940:	2447804c 	addiu	a3,v0,-32692
80015944:	0c00418e 	jal	80010638 <__panic>
80015948:	00000000 	nop
8001594c:	24040001 	li	a0,1
80015950:	0c004970 	jal	800125c0 <alloc_pages>
80015954:	00000000 	nop
80015958:	1040000a 	beqz	v0,80015984 <default_check+0x6f8>
8001595c:	00000000 	nop
80015960:	3c028001 	lui	v0,0x8001
80015964:	24447c9c 	addiu	a0,v0,31900
80015968:	24050116 	li	a1,278
8001596c:	3c028001 	lui	v0,0x8001
80015970:	24467cb4 	addiu	a2,v0,31924
80015974:	3c028001 	lui	v0,0x8001
80015978:	24477e90 	addiu	a3,v0,32400
8001597c:	0c00418e 	jal	80010638 <__panic>
80015980:	00000000 	nop
80015984:	3c028002 	lui	v0,0x8002
80015988:	24425650 	addiu	v0,v0,22096
8001598c:	8c420008 	lw	v0,8(v0)
80015990:	1040000a 	beqz	v0,800159bc <default_check+0x730>
80015994:	00000000 	nop
80015998:	3c028001 	lui	v0,0x8001
8001599c:	24447c9c 	addiu	a0,v0,31900
800159a0:	24050118 	li	a1,280
800159a4:	3c028001 	lui	v0,0x8001
800159a8:	24467cb4 	addiu	a2,v0,31924
800159ac:	3c028001 	lui	v0,0x8001
800159b0:	24477eec 	addiu	a3,v0,32492
800159b4:	0c00418e 	jal	80010638 <__panic>
800159b8:	00000000 	nop
800159bc:	3c028002 	lui	v0,0x8002
800159c0:	24425650 	addiu	v0,v0,22096
800159c4:	8fc30078 	lw	v1,120(s8)
800159c8:	ac430008 	sw	v1,8(v0)
800159cc:	3c028002 	lui	v0,0x8002
800159d0:	8fc40094 	lw	a0,148(s8)
800159d4:	8fc30098 	lw	v1,152(s8)
800159d8:	ac445650 	sw	a0,22096(v0)
800159dc:	24425650 	addiu	v0,v0,22096
800159e0:	ac430004 	sw	v1,4(v0)
800159e4:	8fc40084 	lw	a0,132(s8)
800159e8:	24050005 	li	a1,5
800159ec:	0c00498a 	jal	80012628 <free_pages>
800159f0:	00000000 	nop
800159f4:	3c028002 	lui	v0,0x8002
800159f8:	24425650 	addiu	v0,v0,22096
800159fc:	afc20088 	sw	v0,136(s8)
80015a00:	0800568d 	j	80015a34 <default_check+0x7a8>
80015a04:	00000000 	nop
80015a08:	8fc20088 	lw	v0,136(s8)
80015a0c:	2442fff4 	addiu	v0,v0,-12
80015a10:	afc20070 	sw	v0,112(s8)
80015a14:	8fc20090 	lw	v0,144(s8)
80015a18:	2442ffff 	addiu	v0,v0,-1
80015a1c:	afc20090 	sw	v0,144(s8)
80015a20:	8fc3008c 	lw	v1,140(s8)
80015a24:	8fc20070 	lw	v0,112(s8)
80015a28:	8c420008 	lw	v0,8(v0)
80015a2c:	00621023 	subu	v0,v1,v0
80015a30:	afc2008c 	sw	v0,140(s8)
80015a34:	8fc20088 	lw	v0,136(s8)
80015a38:	afc20010 	sw	v0,16(s8)
80015a3c:	8fc20010 	lw	v0,16(s8)
80015a40:	8c420004 	lw	v0,4(v0)
80015a44:	afc20088 	sw	v0,136(s8)
80015a48:	8fc30088 	lw	v1,136(s8)
80015a4c:	3c028002 	lui	v0,0x8002
80015a50:	24425650 	addiu	v0,v0,22096
80015a54:	1462ffec 	bne	v1,v0,80015a08 <default_check+0x77c>
80015a58:	00000000 	nop
80015a5c:	8fc20090 	lw	v0,144(s8)
80015a60:	1040000a 	beqz	v0,80015a8c <default_check+0x800>
80015a64:	00000000 	nop
80015a68:	3c028001 	lui	v0,0x8001
80015a6c:	24447c9c 	addiu	a0,v0,31900
80015a70:	24050123 	li	a1,291
80015a74:	3c028001 	lui	v0,0x8001
80015a78:	24467cb4 	addiu	a2,v0,31924
80015a7c:	3c028002 	lui	v0,0x8002
80015a80:	2447806c 	addiu	a3,v0,-32660
80015a84:	0c00418e 	jal	80010638 <__panic>
80015a88:	00000000 	nop
80015a8c:	8fc2008c 	lw	v0,140(s8)
80015a90:	1040000a 	beqz	v0,80015abc <default_check+0x830>
80015a94:	00000000 	nop
80015a98:	3c028001 	lui	v0,0x8001
80015a9c:	24447c9c 	addiu	a0,v0,31900
80015aa0:	24050124 	li	a1,292
80015aa4:	3c028001 	lui	v0,0x8001
80015aa8:	24467cb4 	addiu	a2,v0,31924
80015aac:	3c028002 	lui	v0,0x8002
80015ab0:	24478078 	addiu	a3,v0,-32648
80015ab4:	0c00418e 	jal	80010638 <__panic>
80015ab8:	00000000 	nop
80015abc:	03c0e821 	move	sp,s8
80015ac0:	8fbf00ac 	lw	ra,172(sp)
80015ac4:	8fbe00a8 	lw	s8,168(sp)
80015ac8:	8fb000a4 	lw	s0,164(sp)
80015acc:	27bd00b0 	addiu	sp,sp,176
80015ad0:	03e00008 	jr	ra
80015ad4:	00000000 	nop

80015ad8 <strlen>:
80015ad8:	27bdfff0 	addiu	sp,sp,-16
80015adc:	afbe000c 	sw	s8,12(sp)
80015ae0:	03a0f021 	move	s8,sp
80015ae4:	afc40010 	sw	a0,16(s8)
80015ae8:	afc00000 	sw	zero,0(s8)
80015aec:	080056c0 	j	80015b00 <strlen+0x28>
80015af0:	00000000 	nop
80015af4:	8fc20000 	lw	v0,0(s8)
80015af8:	24420001 	addiu	v0,v0,1
80015afc:	afc20000 	sw	v0,0(s8)
80015b00:	8fc20010 	lw	v0,16(s8)
80015b04:	90420000 	lbu	v0,0(v0)
80015b08:	0002102b 	sltu	v0,zero,v0
80015b0c:	304200ff 	andi	v0,v0,0xff
80015b10:	8fc30010 	lw	v1,16(s8)
80015b14:	24630001 	addiu	v1,v1,1
80015b18:	afc30010 	sw	v1,16(s8)
80015b1c:	1440fff5 	bnez	v0,80015af4 <strlen+0x1c>
80015b20:	00000000 	nop
80015b24:	8fc20000 	lw	v0,0(s8)
80015b28:	03c0e821 	move	sp,s8
80015b2c:	8fbe000c 	lw	s8,12(sp)
80015b30:	27bd0010 	addiu	sp,sp,16
80015b34:	03e00008 	jr	ra
80015b38:	00000000 	nop

80015b3c <strnlen>:
80015b3c:	27bdfff0 	addiu	sp,sp,-16
80015b40:	afbe000c 	sw	s8,12(sp)
80015b44:	03a0f021 	move	s8,sp
80015b48:	afc40010 	sw	a0,16(s8)
80015b4c:	afc50014 	sw	a1,20(s8)
80015b50:	afc00000 	sw	zero,0(s8)
80015b54:	080056da 	j	80015b68 <strnlen+0x2c>
80015b58:	00000000 	nop
80015b5c:	8fc20000 	lw	v0,0(s8)
80015b60:	24420001 	addiu	v0,v0,1
80015b64:	afc20000 	sw	v0,0(s8)
80015b68:	8fc30000 	lw	v1,0(s8)
80015b6c:	8fc20014 	lw	v0,20(s8)
80015b70:	0062102b 	sltu	v0,v1,v0
80015b74:	1040000a 	beqz	v0,80015ba0 <strnlen+0x64>
80015b78:	00000000 	nop
80015b7c:	8fc20010 	lw	v0,16(s8)
80015b80:	90420000 	lbu	v0,0(v0)
80015b84:	0002102b 	sltu	v0,zero,v0
80015b88:	304200ff 	andi	v0,v0,0xff
80015b8c:	8fc30010 	lw	v1,16(s8)
80015b90:	24630001 	addiu	v1,v1,1
80015b94:	afc30010 	sw	v1,16(s8)
80015b98:	1440fff0 	bnez	v0,80015b5c <strnlen+0x20>
80015b9c:	00000000 	nop
80015ba0:	8fc20000 	lw	v0,0(s8)
80015ba4:	03c0e821 	move	sp,s8
80015ba8:	8fbe000c 	lw	s8,12(sp)
80015bac:	27bd0010 	addiu	sp,sp,16
80015bb0:	03e00008 	jr	ra
80015bb4:	00000000 	nop

80015bb8 <strcpy>:
80015bb8:	27bdfff0 	addiu	sp,sp,-16
80015bbc:	afbe000c 	sw	s8,12(sp)
80015bc0:	03a0f021 	move	s8,sp
80015bc4:	afc40010 	sw	a0,16(s8)
80015bc8:	afc50014 	sw	a1,20(s8)
80015bcc:	8fc20010 	lw	v0,16(s8)
80015bd0:	afc20000 	sw	v0,0(s8)
80015bd4:	8fc20014 	lw	v0,20(s8)
80015bd8:	90430000 	lbu	v1,0(v0)
80015bdc:	8fc20000 	lw	v0,0(s8)
80015be0:	a0430000 	sb	v1,0(v0)
80015be4:	8fc20000 	lw	v0,0(s8)
80015be8:	90420000 	lbu	v0,0(v0)
80015bec:	0002102b 	sltu	v0,zero,v0
80015bf0:	304200ff 	andi	v0,v0,0xff
80015bf4:	8fc30000 	lw	v1,0(s8)
80015bf8:	24630001 	addiu	v1,v1,1
80015bfc:	afc30000 	sw	v1,0(s8)
80015c00:	8fc30014 	lw	v1,20(s8)
80015c04:	24630001 	addiu	v1,v1,1
80015c08:	afc30014 	sw	v1,20(s8)
80015c0c:	1440fff1 	bnez	v0,80015bd4 <strcpy+0x1c>
80015c10:	00000000 	nop
80015c14:	8fc20010 	lw	v0,16(s8)
80015c18:	03c0e821 	move	sp,s8
80015c1c:	8fbe000c 	lw	s8,12(sp)
80015c20:	27bd0010 	addiu	sp,sp,16
80015c24:	03e00008 	jr	ra
80015c28:	00000000 	nop

80015c2c <strncpy>:
80015c2c:	27bdfff0 	addiu	sp,sp,-16
80015c30:	afbe000c 	sw	s8,12(sp)
80015c34:	03a0f021 	move	s8,sp
80015c38:	afc40010 	sw	a0,16(s8)
80015c3c:	afc50014 	sw	a1,20(s8)
80015c40:	afc60018 	sw	a2,24(s8)
80015c44:	8fc20010 	lw	v0,16(s8)
80015c48:	afc20000 	sw	v0,0(s8)
80015c4c:	08005726 	j	80015c98 <strncpy+0x6c>
80015c50:	00000000 	nop
80015c54:	8fc20014 	lw	v0,20(s8)
80015c58:	90430000 	lbu	v1,0(v0)
80015c5c:	8fc20000 	lw	v0,0(s8)
80015c60:	a0430000 	sb	v1,0(v0)
80015c64:	8fc20000 	lw	v0,0(s8)
80015c68:	90420000 	lbu	v0,0(v0)
80015c6c:	10400004 	beqz	v0,80015c80 <strncpy+0x54>
80015c70:	00000000 	nop
80015c74:	8fc20014 	lw	v0,20(s8)
80015c78:	24420001 	addiu	v0,v0,1
80015c7c:	afc20014 	sw	v0,20(s8)
80015c80:	8fc20000 	lw	v0,0(s8)
80015c84:	24420001 	addiu	v0,v0,1
80015c88:	afc20000 	sw	v0,0(s8)
80015c8c:	8fc20018 	lw	v0,24(s8)
80015c90:	2442ffff 	addiu	v0,v0,-1
80015c94:	afc20018 	sw	v0,24(s8)
80015c98:	8fc20018 	lw	v0,24(s8)
80015c9c:	1440ffed 	bnez	v0,80015c54 <strncpy+0x28>
80015ca0:	00000000 	nop
80015ca4:	8fc20010 	lw	v0,16(s8)
80015ca8:	03c0e821 	move	sp,s8
80015cac:	8fbe000c 	lw	s8,12(sp)
80015cb0:	27bd0010 	addiu	sp,sp,16
80015cb4:	03e00008 	jr	ra
80015cb8:	00000000 	nop

80015cbc <strcmp>:
80015cbc:	27bdfff8 	addiu	sp,sp,-8
80015cc0:	afbe0004 	sw	s8,4(sp)
80015cc4:	03a0f021 	move	s8,sp
80015cc8:	afc40008 	sw	a0,8(s8)
80015ccc:	afc5000c 	sw	a1,12(s8)
80015cd0:	0800573c 	j	80015cf0 <strcmp+0x34>
80015cd4:	00000000 	nop
80015cd8:	8fc20008 	lw	v0,8(s8)
80015cdc:	24420001 	addiu	v0,v0,1
80015ce0:	afc20008 	sw	v0,8(s8)
80015ce4:	8fc2000c 	lw	v0,12(s8)
80015ce8:	24420001 	addiu	v0,v0,1
80015cec:	afc2000c 	sw	v0,12(s8)
80015cf0:	8fc20008 	lw	v0,8(s8)
80015cf4:	90420000 	lbu	v0,0(v0)
80015cf8:	10400007 	beqz	v0,80015d18 <strcmp+0x5c>
80015cfc:	00000000 	nop
80015d00:	8fc20008 	lw	v0,8(s8)
80015d04:	90430000 	lbu	v1,0(v0)
80015d08:	8fc2000c 	lw	v0,12(s8)
80015d0c:	90420000 	lbu	v0,0(v0)
80015d10:	1062fff1 	beq	v1,v0,80015cd8 <strcmp+0x1c>
80015d14:	00000000 	nop
80015d18:	8fc20008 	lw	v0,8(s8)
80015d1c:	90420000 	lbu	v0,0(v0)
80015d20:	00401821 	move	v1,v0
80015d24:	8fc2000c 	lw	v0,12(s8)
80015d28:	90420000 	lbu	v0,0(v0)
80015d2c:	00621023 	subu	v0,v1,v0
80015d30:	03c0e821 	move	sp,s8
80015d34:	8fbe0004 	lw	s8,4(sp)
80015d38:	27bd0008 	addiu	sp,sp,8
80015d3c:	03e00008 	jr	ra
80015d40:	00000000 	nop

80015d44 <strncmp>:
80015d44:	27bdfff8 	addiu	sp,sp,-8
80015d48:	afbe0004 	sw	s8,4(sp)
80015d4c:	03a0f021 	move	s8,sp
80015d50:	afc40008 	sw	a0,8(s8)
80015d54:	afc5000c 	sw	a1,12(s8)
80015d58:	afc60010 	sw	a2,16(s8)
80015d5c:	08005762 	j	80015d88 <strncmp+0x44>
80015d60:	00000000 	nop
80015d64:	8fc20010 	lw	v0,16(s8)
80015d68:	2442ffff 	addiu	v0,v0,-1
80015d6c:	afc20010 	sw	v0,16(s8)
80015d70:	8fc20008 	lw	v0,8(s8)
80015d74:	24420001 	addiu	v0,v0,1
80015d78:	afc20008 	sw	v0,8(s8)
80015d7c:	8fc2000c 	lw	v0,12(s8)
80015d80:	24420001 	addiu	v0,v0,1
80015d84:	afc2000c 	sw	v0,12(s8)
80015d88:	8fc20010 	lw	v0,16(s8)
80015d8c:	1040000b 	beqz	v0,80015dbc <strncmp+0x78>
80015d90:	00000000 	nop
80015d94:	8fc20008 	lw	v0,8(s8)
80015d98:	90420000 	lbu	v0,0(v0)
80015d9c:	10400007 	beqz	v0,80015dbc <strncmp+0x78>
80015da0:	00000000 	nop
80015da4:	8fc20008 	lw	v0,8(s8)
80015da8:	90430000 	lbu	v1,0(v0)
80015dac:	8fc2000c 	lw	v0,12(s8)
80015db0:	90420000 	lbu	v0,0(v0)
80015db4:	1062ffeb 	beq	v1,v0,80015d64 <strncmp+0x20>
80015db8:	00000000 	nop
80015dbc:	8fc20010 	lw	v0,16(s8)
80015dc0:	10400009 	beqz	v0,80015de8 <strncmp+0xa4>
80015dc4:	00000000 	nop
80015dc8:	8fc20008 	lw	v0,8(s8)
80015dcc:	90420000 	lbu	v0,0(v0)
80015dd0:	00401821 	move	v1,v0
80015dd4:	8fc2000c 	lw	v0,12(s8)
80015dd8:	90420000 	lbu	v0,0(v0)
80015ddc:	00621023 	subu	v0,v1,v0
80015de0:	0800577b 	j	80015dec <strncmp+0xa8>
80015de4:	00000000 	nop
80015de8:	00001021 	move	v0,zero
80015dec:	03c0e821 	move	sp,s8
80015df0:	8fbe0004 	lw	s8,4(sp)
80015df4:	27bd0008 	addiu	sp,sp,8
80015df8:	03e00008 	jr	ra
80015dfc:	00000000 	nop

80015e00 <strchr>:
80015e00:	27bdfff8 	addiu	sp,sp,-8
80015e04:	afbe0004 	sw	s8,4(sp)
80015e08:	03a0f021 	move	s8,sp
80015e0c:	afc40008 	sw	a0,8(s8)
80015e10:	00a01021 	move	v0,a1
80015e14:	a3c2000c 	sb	v0,12(s8)
80015e18:	08005793 	j	80015e4c <strchr+0x4c>
80015e1c:	00000000 	nop
80015e20:	8fc20008 	lw	v0,8(s8)
80015e24:	90420000 	lbu	v0,0(v0)
80015e28:	93c3000c 	lbu	v1,12(s8)
80015e2c:	14620004 	bne	v1,v0,80015e40 <strchr+0x40>
80015e30:	00000000 	nop
80015e34:	8fc20008 	lw	v0,8(s8)
80015e38:	08005798 	j	80015e60 <strchr+0x60>
80015e3c:	00000000 	nop
80015e40:	8fc20008 	lw	v0,8(s8)
80015e44:	24420001 	addiu	v0,v0,1
80015e48:	afc20008 	sw	v0,8(s8)
80015e4c:	8fc20008 	lw	v0,8(s8)
80015e50:	90420000 	lbu	v0,0(v0)
80015e54:	1440fff2 	bnez	v0,80015e20 <strchr+0x20>
80015e58:	00000000 	nop
80015e5c:	00001021 	move	v0,zero
80015e60:	03c0e821 	move	sp,s8
80015e64:	8fbe0004 	lw	s8,4(sp)
80015e68:	27bd0008 	addiu	sp,sp,8
80015e6c:	03e00008 	jr	ra
80015e70:	00000000 	nop

80015e74 <strfind>:
80015e74:	27bdfff8 	addiu	sp,sp,-8
80015e78:	afbe0004 	sw	s8,4(sp)
80015e7c:	03a0f021 	move	s8,sp
80015e80:	afc40008 	sw	a0,8(s8)
80015e84:	00a01021 	move	v0,a1
80015e88:	a3c2000c 	sb	v0,12(s8)
80015e8c:	080057ad 	j	80015eb4 <strfind+0x40>
80015e90:	00000000 	nop
80015e94:	8fc20008 	lw	v0,8(s8)
80015e98:	90420000 	lbu	v0,0(v0)
80015e9c:	93c3000c 	lbu	v1,12(s8)
80015ea0:	1062000a 	beq	v1,v0,80015ecc <strfind+0x58>
80015ea4:	00000000 	nop
80015ea8:	8fc20008 	lw	v0,8(s8)
80015eac:	24420001 	addiu	v0,v0,1
80015eb0:	afc20008 	sw	v0,8(s8)
80015eb4:	8fc20008 	lw	v0,8(s8)
80015eb8:	90420000 	lbu	v0,0(v0)
80015ebc:	1440fff5 	bnez	v0,80015e94 <strfind+0x20>
80015ec0:	00000000 	nop
80015ec4:	080057b4 	j	80015ed0 <strfind+0x5c>
80015ec8:	00000000 	nop
80015ecc:	00000000 	nop
80015ed0:	8fc20008 	lw	v0,8(s8)
80015ed4:	03c0e821 	move	sp,s8
80015ed8:	8fbe0004 	lw	s8,4(sp)
80015edc:	27bd0008 	addiu	sp,sp,8
80015ee0:	03e00008 	jr	ra
80015ee4:	00000000 	nop

80015ee8 <strtol>:
80015ee8:	27bdffe8 	addiu	sp,sp,-24
80015eec:	afbe0014 	sw	s8,20(sp)
80015ef0:	03a0f021 	move	s8,sp
80015ef4:	afc40018 	sw	a0,24(s8)
80015ef8:	afc5001c 	sw	a1,28(s8)
80015efc:	afc60020 	sw	a2,32(s8)
80015f00:	afc00008 	sw	zero,8(s8)
80015f04:	afc00004 	sw	zero,4(s8)
80015f08:	080057c7 	j	80015f1c <strtol+0x34>
80015f0c:	00000000 	nop
80015f10:	8fc20018 	lw	v0,24(s8)
80015f14:	24420001 	addiu	v0,v0,1
80015f18:	afc20018 	sw	v0,24(s8)
80015f1c:	8fc20018 	lw	v0,24(s8)
80015f20:	90430000 	lbu	v1,0(v0)
80015f24:	24020020 	li	v0,32
80015f28:	1062fff9 	beq	v1,v0,80015f10 <strtol+0x28>
80015f2c:	00000000 	nop
80015f30:	8fc20018 	lw	v0,24(s8)
80015f34:	90430000 	lbu	v1,0(v0)
80015f38:	24020009 	li	v0,9
80015f3c:	1062fff4 	beq	v1,v0,80015f10 <strtol+0x28>
80015f40:	00000000 	nop
80015f44:	8fc20018 	lw	v0,24(s8)
80015f48:	90430000 	lbu	v1,0(v0)
80015f4c:	2402002b 	li	v0,43
80015f50:	14620006 	bne	v1,v0,80015f6c <strtol+0x84>
80015f54:	00000000 	nop
80015f58:	8fc20018 	lw	v0,24(s8)
80015f5c:	24420001 	addiu	v0,v0,1
80015f60:	afc20018 	sw	v0,24(s8)
80015f64:	080057e5 	j	80015f94 <strtol+0xac>
80015f68:	00000000 	nop
80015f6c:	8fc20018 	lw	v0,24(s8)
80015f70:	90430000 	lbu	v1,0(v0)
80015f74:	2402002d 	li	v0,45
80015f78:	14620006 	bne	v1,v0,80015f94 <strtol+0xac>
80015f7c:	00000000 	nop
80015f80:	8fc20018 	lw	v0,24(s8)
80015f84:	24420001 	addiu	v0,v0,1
80015f88:	afc20018 	sw	v0,24(s8)
80015f8c:	24020001 	li	v0,1
80015f90:	afc20008 	sw	v0,8(s8)
80015f94:	8fc20020 	lw	v0,32(s8)
80015f98:	10400005 	beqz	v0,80015fb0 <strtol+0xc8>
80015f9c:	00000000 	nop
80015fa0:	8fc30020 	lw	v1,32(s8)
80015fa4:	24020010 	li	v0,16
80015fa8:	14620013 	bne	v1,v0,80015ff8 <strtol+0x110>
80015fac:	00000000 	nop
80015fb0:	8fc20018 	lw	v0,24(s8)
80015fb4:	90430000 	lbu	v1,0(v0)
80015fb8:	24020030 	li	v0,48
80015fbc:	1462000e 	bne	v1,v0,80015ff8 <strtol+0x110>
80015fc0:	00000000 	nop
80015fc4:	8fc20018 	lw	v0,24(s8)
80015fc8:	24420001 	addiu	v0,v0,1
80015fcc:	90430000 	lbu	v1,0(v0)
80015fd0:	24020078 	li	v0,120
80015fd4:	14620008 	bne	v1,v0,80015ff8 <strtol+0x110>
80015fd8:	00000000 	nop
80015fdc:	8fc20018 	lw	v0,24(s8)
80015fe0:	24420002 	addiu	v0,v0,2
80015fe4:	afc20018 	sw	v0,24(s8)
80015fe8:	24020010 	li	v0,16
80015fec:	afc20020 	sw	v0,32(s8)
80015ff0:	08005812 	j	80016048 <strtol+0x160>
80015ff4:	00000000 	nop
80015ff8:	8fc20020 	lw	v0,32(s8)
80015ffc:	1440000d 	bnez	v0,80016034 <strtol+0x14c>
80016000:	00000000 	nop
80016004:	8fc20018 	lw	v0,24(s8)
80016008:	90430000 	lbu	v1,0(v0)
8001600c:	24020030 	li	v0,48
80016010:	14620008 	bne	v1,v0,80016034 <strtol+0x14c>
80016014:	00000000 	nop
80016018:	8fc20018 	lw	v0,24(s8)
8001601c:	24420001 	addiu	v0,v0,1
80016020:	afc20018 	sw	v0,24(s8)
80016024:	24020008 	li	v0,8
80016028:	afc20020 	sw	v0,32(s8)
8001602c:	08005812 	j	80016048 <strtol+0x160>
80016030:	00000000 	nop
80016034:	8fc20020 	lw	v0,32(s8)
80016038:	14400003 	bnez	v0,80016048 <strtol+0x160>
8001603c:	00000000 	nop
80016040:	2402000a 	li	v0,10
80016044:	afc20020 	sw	v0,32(s8)
80016048:	8fc20018 	lw	v0,24(s8)
8001604c:	90420000 	lbu	v0,0(v0)
80016050:	2c420030 	sltiu	v0,v0,48
80016054:	1440000c 	bnez	v0,80016088 <strtol+0x1a0>
80016058:	00000000 	nop
8001605c:	8fc20018 	lw	v0,24(s8)
80016060:	90420000 	lbu	v0,0(v0)
80016064:	2c42003a 	sltiu	v0,v0,58
80016068:	10400007 	beqz	v0,80016088 <strtol+0x1a0>
8001606c:	00000000 	nop
80016070:	8fc20018 	lw	v0,24(s8)
80016074:	90420000 	lbu	v0,0(v0)
80016078:	2442ffd0 	addiu	v0,v0,-48
8001607c:	afc20000 	sw	v0,0(s8)
80016080:	08005840 	j	80016100 <strtol+0x218>
80016084:	00000000 	nop
80016088:	8fc20018 	lw	v0,24(s8)
8001608c:	90420000 	lbu	v0,0(v0)
80016090:	2c420061 	sltiu	v0,v0,97
80016094:	1440000c 	bnez	v0,800160c8 <strtol+0x1e0>
80016098:	00000000 	nop
8001609c:	8fc20018 	lw	v0,24(s8)
800160a0:	90420000 	lbu	v0,0(v0)
800160a4:	2c42007b 	sltiu	v0,v0,123
800160a8:	10400007 	beqz	v0,800160c8 <strtol+0x1e0>
800160ac:	00000000 	nop
800160b0:	8fc20018 	lw	v0,24(s8)
800160b4:	90420000 	lbu	v0,0(v0)
800160b8:	2442ffa9 	addiu	v0,v0,-87
800160bc:	afc20000 	sw	v0,0(s8)
800160c0:	08005840 	j	80016100 <strtol+0x218>
800160c4:	00000000 	nop
800160c8:	8fc20018 	lw	v0,24(s8)
800160cc:	90420000 	lbu	v0,0(v0)
800160d0:	2c420041 	sltiu	v0,v0,65
800160d4:	1440001b 	bnez	v0,80016144 <strtol+0x25c>
800160d8:	00000000 	nop
800160dc:	8fc20018 	lw	v0,24(s8)
800160e0:	90420000 	lbu	v0,0(v0)
800160e4:	2c42005b 	sltiu	v0,v0,91
800160e8:	10400016 	beqz	v0,80016144 <strtol+0x25c>
800160ec:	00000000 	nop
800160f0:	8fc20018 	lw	v0,24(s8)
800160f4:	90420000 	lbu	v0,0(v0)
800160f8:	2442ffc9 	addiu	v0,v0,-55
800160fc:	afc20000 	sw	v0,0(s8)
80016100:	8fc30000 	lw	v1,0(s8)
80016104:	8fc20020 	lw	v0,32(s8)
80016108:	0062102a 	slt	v0,v1,v0
8001610c:	1040000c 	beqz	v0,80016140 <strtol+0x258>
80016110:	00000000 	nop
80016114:	8fc20018 	lw	v0,24(s8)
80016118:	24420001 	addiu	v0,v0,1
8001611c:	afc20018 	sw	v0,24(s8)
80016120:	8fc30004 	lw	v1,4(s8)
80016124:	8fc20020 	lw	v0,32(s8)
80016128:	70621802 	mul	v1,v1,v0
8001612c:	8fc20000 	lw	v0,0(s8)
80016130:	00621021 	addu	v0,v1,v0
80016134:	afc20004 	sw	v0,4(s8)
80016138:	08005812 	j	80016048 <strtol+0x160>
8001613c:	00000000 	nop
80016140:	00000000 	nop
80016144:	8fc2001c 	lw	v0,28(s8)
80016148:	10400004 	beqz	v0,8001615c <strtol+0x274>
8001614c:	00000000 	nop
80016150:	8fc2001c 	lw	v0,28(s8)
80016154:	8fc30018 	lw	v1,24(s8)
80016158:	ac430000 	sw	v1,0(v0)
8001615c:	8fc20008 	lw	v0,8(s8)
80016160:	10400005 	beqz	v0,80016178 <strtol+0x290>
80016164:	00000000 	nop
80016168:	8fc20004 	lw	v0,4(s8)
8001616c:	00021023 	negu	v0,v0
80016170:	0800585f 	j	8001617c <strtol+0x294>
80016174:	00000000 	nop
80016178:	8fc20004 	lw	v0,4(s8)
8001617c:	03c0e821 	move	sp,s8
80016180:	8fbe0014 	lw	s8,20(sp)
80016184:	27bd0018 	addiu	sp,sp,24
80016188:	03e00008 	jr	ra
8001618c:	00000000 	nop

80016190 <memset>:
80016190:	27bdfff0 	addiu	sp,sp,-16
80016194:	afbe000c 	sw	s8,12(sp)
80016198:	03a0f021 	move	s8,sp
8001619c:	afc40010 	sw	a0,16(s8)
800161a0:	00a01021 	move	v0,a1
800161a4:	afc60018 	sw	a2,24(s8)
800161a8:	a3c20014 	sb	v0,20(s8)
800161ac:	8fc20010 	lw	v0,16(s8)
800161b0:	afc20000 	sw	v0,0(s8)
800161b4:	08005875 	j	800161d4 <memset+0x44>
800161b8:	00000000 	nop
800161bc:	8fc20000 	lw	v0,0(s8)
800161c0:	93c30014 	lbu	v1,20(s8)
800161c4:	a0430000 	sb	v1,0(v0)
800161c8:	8fc20000 	lw	v0,0(s8)
800161cc:	24420001 	addiu	v0,v0,1
800161d0:	afc20000 	sw	v0,0(s8)
800161d4:	8fc20018 	lw	v0,24(s8)
800161d8:	0002102b 	sltu	v0,zero,v0
800161dc:	304200ff 	andi	v0,v0,0xff
800161e0:	8fc30018 	lw	v1,24(s8)
800161e4:	2463ffff 	addiu	v1,v1,-1
800161e8:	afc30018 	sw	v1,24(s8)
800161ec:	1440fff3 	bnez	v0,800161bc <memset+0x2c>
800161f0:	00000000 	nop
800161f4:	8fc20010 	lw	v0,16(s8)
800161f8:	03c0e821 	move	sp,s8
800161fc:	8fbe000c 	lw	s8,12(sp)
80016200:	27bd0010 	addiu	sp,sp,16
80016204:	03e00008 	jr	ra
80016208:	00000000 	nop

8001620c <memmove>:
8001620c:	27bdfff0 	addiu	sp,sp,-16
80016210:	afbe000c 	sw	s8,12(sp)
80016214:	03a0f021 	move	s8,sp
80016218:	afc40010 	sw	a0,16(s8)
8001621c:	afc50014 	sw	a1,20(s8)
80016220:	afc60018 	sw	a2,24(s8)
80016224:	8fc20014 	lw	v0,20(s8)
80016228:	afc20004 	sw	v0,4(s8)
8001622c:	8fc20010 	lw	v0,16(s8)
80016230:	afc20000 	sw	v0,0(s8)
80016234:	8fc30004 	lw	v1,4(s8)
80016238:	8fc20000 	lw	v0,0(s8)
8001623c:	0062102b 	sltu	v0,v1,v0
80016240:	10400032 	beqz	v0,8001630c <memmove+0x100>
80016244:	00000000 	nop
80016248:	8fc30004 	lw	v1,4(s8)
8001624c:	8fc20018 	lw	v0,24(s8)
80016250:	00621821 	addu	v1,v1,v0
80016254:	8fc20000 	lw	v0,0(s8)
80016258:	0043102b 	sltu	v0,v0,v1
8001625c:	1040002e 	beqz	v0,80016318 <memmove+0x10c>
80016260:	00000000 	nop
80016264:	8fc30004 	lw	v1,4(s8)
80016268:	8fc20018 	lw	v0,24(s8)
8001626c:	00621021 	addu	v0,v1,v0
80016270:	afc20004 	sw	v0,4(s8)
80016274:	8fc30000 	lw	v1,0(s8)
80016278:	8fc20018 	lw	v0,24(s8)
8001627c:	00621021 	addu	v0,v1,v0
80016280:	afc20000 	sw	v0,0(s8)
80016284:	080058ad 	j	800162b4 <memmove+0xa8>
80016288:	00000000 	nop
8001628c:	8fc20000 	lw	v0,0(s8)
80016290:	2442ffff 	addiu	v0,v0,-1
80016294:	afc20000 	sw	v0,0(s8)
80016298:	8fc20004 	lw	v0,4(s8)
8001629c:	2442ffff 	addiu	v0,v0,-1
800162a0:	afc20004 	sw	v0,4(s8)
800162a4:	8fc20004 	lw	v0,4(s8)
800162a8:	90430000 	lbu	v1,0(v0)
800162ac:	8fc20000 	lw	v0,0(s8)
800162b0:	a0430000 	sb	v1,0(v0)
800162b4:	8fc20018 	lw	v0,24(s8)
800162b8:	0002102b 	sltu	v0,zero,v0
800162bc:	304200ff 	andi	v0,v0,0xff
800162c0:	8fc30018 	lw	v1,24(s8)
800162c4:	2463ffff 	addiu	v1,v1,-1
800162c8:	afc30018 	sw	v1,24(s8)
800162cc:	1440ffef 	bnez	v0,8001628c <memmove+0x80>
800162d0:	00000000 	nop
800162d4:	080058cf 	j	8001633c <memmove+0x130>
800162d8:	00000000 	nop
800162dc:	8fc20004 	lw	v0,4(s8)
800162e0:	90430000 	lbu	v1,0(v0)
800162e4:	8fc20000 	lw	v0,0(s8)
800162e8:	a0430000 	sb	v1,0(v0)
800162ec:	8fc20000 	lw	v0,0(s8)
800162f0:	24420001 	addiu	v0,v0,1
800162f4:	afc20000 	sw	v0,0(s8)
800162f8:	8fc20004 	lw	v0,4(s8)
800162fc:	24420001 	addiu	v0,v0,1
80016300:	afc20004 	sw	v0,4(s8)
80016304:	080058c7 	j	8001631c <memmove+0x110>
80016308:	00000000 	nop
8001630c:	00000000 	nop
80016310:	080058c7 	j	8001631c <memmove+0x110>
80016314:	00000000 	nop
80016318:	00000000 	nop
8001631c:	8fc20018 	lw	v0,24(s8)
80016320:	0002102b 	sltu	v0,zero,v0
80016324:	304200ff 	andi	v0,v0,0xff
80016328:	8fc30018 	lw	v1,24(s8)
8001632c:	2463ffff 	addiu	v1,v1,-1
80016330:	afc30018 	sw	v1,24(s8)
80016334:	1440ffe9 	bnez	v0,800162dc <memmove+0xd0>
80016338:	00000000 	nop
8001633c:	8fc20010 	lw	v0,16(s8)
80016340:	03c0e821 	move	sp,s8
80016344:	8fbe000c 	lw	s8,12(sp)
80016348:	27bd0010 	addiu	sp,sp,16
8001634c:	03e00008 	jr	ra
80016350:	00000000 	nop

80016354 <memcpy>:
80016354:	27bdfff0 	addiu	sp,sp,-16
80016358:	afbe000c 	sw	s8,12(sp)
8001635c:	03a0f021 	move	s8,sp
80016360:	afc40010 	sw	a0,16(s8)
80016364:	afc50014 	sw	a1,20(s8)
80016368:	afc60018 	sw	a2,24(s8)
8001636c:	8fc20014 	lw	v0,20(s8)
80016370:	afc20004 	sw	v0,4(s8)
80016374:	8fc20010 	lw	v0,16(s8)
80016378:	afc20000 	sw	v0,0(s8)
8001637c:	080058eb 	j	800163ac <memcpy+0x58>
80016380:	00000000 	nop
80016384:	8fc20004 	lw	v0,4(s8)
80016388:	90430000 	lbu	v1,0(v0)
8001638c:	8fc20000 	lw	v0,0(s8)
80016390:	a0430000 	sb	v1,0(v0)
80016394:	8fc20000 	lw	v0,0(s8)
80016398:	24420001 	addiu	v0,v0,1
8001639c:	afc20000 	sw	v0,0(s8)
800163a0:	8fc20004 	lw	v0,4(s8)
800163a4:	24420001 	addiu	v0,v0,1
800163a8:	afc20004 	sw	v0,4(s8)
800163ac:	8fc20018 	lw	v0,24(s8)
800163b0:	0002102b 	sltu	v0,zero,v0
800163b4:	304200ff 	andi	v0,v0,0xff
800163b8:	8fc30018 	lw	v1,24(s8)
800163bc:	2463ffff 	addiu	v1,v1,-1
800163c0:	afc30018 	sw	v1,24(s8)
800163c4:	1440ffef 	bnez	v0,80016384 <memcpy+0x30>
800163c8:	00000000 	nop
800163cc:	8fc20010 	lw	v0,16(s8)
800163d0:	03c0e821 	move	sp,s8
800163d4:	8fbe000c 	lw	s8,12(sp)
800163d8:	27bd0010 	addiu	sp,sp,16
800163dc:	03e00008 	jr	ra
800163e0:	00000000 	nop

800163e4 <memcmp>:
800163e4:	27bdfff0 	addiu	sp,sp,-16
800163e8:	afbe000c 	sw	s8,12(sp)
800163ec:	03a0f021 	move	s8,sp
800163f0:	afc40010 	sw	a0,16(s8)
800163f4:	afc50014 	sw	a1,20(s8)
800163f8:	afc60018 	sw	a2,24(s8)
800163fc:	8fc20010 	lw	v0,16(s8)
80016400:	afc20004 	sw	v0,4(s8)
80016404:	8fc20014 	lw	v0,20(s8)
80016408:	afc20000 	sw	v0,0(s8)
8001640c:	08005919 	j	80016464 <memcmp+0x80>
80016410:	00000000 	nop
80016414:	8fc20004 	lw	v0,4(s8)
80016418:	90430000 	lbu	v1,0(v0)
8001641c:	8fc20000 	lw	v0,0(s8)
80016420:	90420000 	lbu	v0,0(v0)
80016424:	10620009 	beq	v1,v0,8001644c <memcmp+0x68>
80016428:	00000000 	nop
8001642c:	8fc20004 	lw	v0,4(s8)
80016430:	90420000 	lbu	v0,0(v0)
80016434:	00401821 	move	v1,v0
80016438:	8fc20000 	lw	v0,0(s8)
8001643c:	90420000 	lbu	v0,0(v0)
80016440:	00621023 	subu	v0,v1,v0
80016444:	08005922 	j	80016488 <memcmp+0xa4>
80016448:	00000000 	nop
8001644c:	8fc20004 	lw	v0,4(s8)
80016450:	24420001 	addiu	v0,v0,1
80016454:	afc20004 	sw	v0,4(s8)
80016458:	8fc20000 	lw	v0,0(s8)
8001645c:	24420001 	addiu	v0,v0,1
80016460:	afc20000 	sw	v0,0(s8)
80016464:	8fc20018 	lw	v0,24(s8)
80016468:	0002102b 	sltu	v0,zero,v0
8001646c:	304200ff 	andi	v0,v0,0xff
80016470:	8fc30018 	lw	v1,24(s8)
80016474:	2463ffff 	addiu	v1,v1,-1
80016478:	afc30018 	sw	v1,24(s8)
8001647c:	1440ffe5 	bnez	v0,80016414 <memcmp+0x30>
80016480:	00000000 	nop
80016484:	00001021 	move	v0,zero
80016488:	03c0e821 	move	sp,s8
8001648c:	8fbe000c 	lw	s8,12(sp)
80016490:	27bd0010 	addiu	sp,sp,16
80016494:	03e00008 	jr	ra
80016498:	00000000 	nop

8001649c <printnum>:
8001649c:	27bdffc0 	addiu	sp,sp,-64
800164a0:	afbf003c 	sw	ra,60(sp)
800164a4:	afbe0038 	sw	s8,56(sp)
800164a8:	03a0f021 	move	s8,sp
800164ac:	afc40040 	sw	a0,64(s8)
800164b0:	afc50044 	sw	a1,68(s8)
800164b4:	afc60048 	sw	a2,72(s8)
800164b8:	afc7004c 	sw	a3,76(s8)
800164bc:	8fc40048 	lw	a0,72(s8)
800164c0:	8fc5004c 	lw	a1,76(s8)
800164c4:	afc40030 	sw	a0,48(s8)
800164c8:	afc50034 	sw	a1,52(s8)
800164cc:	8fc50050 	lw	a1,80(s8)
800164d0:	2404000a 	li	a0,10
800164d4:	14a40040 	bne	a1,a0,800165d8 <printnum+0x13c>
800164d8:	00000000 	nop
800164dc:	8fc40034 	lw	a0,52(s8)
800164e0:	000427c0 	sll	a0,a0,0x1f
800164e4:	8fc50030 	lw	a1,48(s8)
800164e8:	00055042 	srl	t2,a1,0x1
800164ec:	008a5025 	or	t2,a0,t2
800164f0:	8fc40034 	lw	a0,52(s8)
800164f4:	00045842 	srl	t3,a0,0x1
800164f8:	01402821 	move	a1,t2
800164fc:	8fc40034 	lw	a0,52(s8)
80016500:	00042780 	sll	a0,a0,0x1e
80016504:	8fc60030 	lw	a2,48(s8)
80016508:	00064082 	srl	t0,a2,0x2
8001650c:	00884025 	or	t0,a0,t0
80016510:	8fc40034 	lw	a0,52(s8)
80016514:	00044882 	srl	t1,a0,0x2
80016518:	01002021 	move	a0,t0
8001651c:	00a42021 	addu	a0,a1,a0
80016520:	afc40020 	sw	a0,32(s8)
80016524:	8fc40020 	lw	a0,32(s8)
80016528:	00042102 	srl	a0,a0,0x4
8001652c:	8fc50020 	lw	a1,32(s8)
80016530:	00a42021 	addu	a0,a1,a0
80016534:	afc40020 	sw	a0,32(s8)
80016538:	8fc40020 	lw	a0,32(s8)
8001653c:	00042202 	srl	a0,a0,0x8
80016540:	8fc50020 	lw	a1,32(s8)
80016544:	00a42021 	addu	a0,a1,a0
80016548:	afc40020 	sw	a0,32(s8)
8001654c:	8fc40020 	lw	a0,32(s8)
80016550:	00042402 	srl	a0,a0,0x10
80016554:	8fc50020 	lw	a1,32(s8)
80016558:	00a42021 	addu	a0,a1,a0
8001655c:	afc40020 	sw	a0,32(s8)
80016560:	8fc40020 	lw	a0,32(s8)
80016564:	000420c2 	srl	a0,a0,0x3
80016568:	afc40020 	sw	a0,32(s8)
8001656c:	8fc50030 	lw	a1,48(s8)
80016570:	8fc40020 	lw	a0,32(s8)
80016574:	00043080 	sll	a2,a0,0x2
80016578:	8fc40020 	lw	a0,32(s8)
8001657c:	00c42021 	addu	a0,a2,a0
80016580:	00042040 	sll	a0,a0,0x1
80016584:	00a42023 	subu	a0,a1,a0
80016588:	afc40024 	sw	a0,36(s8)
8001658c:	8fc40024 	lw	a0,36(s8)
80016590:	24840006 	addiu	a0,a0,6
80016594:	00042102 	srl	a0,a0,0x4
80016598:	8fc50020 	lw	a1,32(s8)
8001659c:	00a42021 	addu	a0,a1,a0
800165a0:	afc40020 	sw	a0,32(s8)
800165a4:	8fc50030 	lw	a1,48(s8)
800165a8:	8fc40020 	lw	a0,32(s8)
800165ac:	00043080 	sll	a2,a0,0x2
800165b0:	8fc40020 	lw	a0,32(s8)
800165b4:	00c42021 	addu	a0,a2,a0
800165b8:	00042040 	sll	a0,a0,0x1
800165bc:	00a42023 	subu	a0,a1,a0
800165c0:	afc40024 	sw	a0,36(s8)
800165c4:	8fc40020 	lw	a0,32(s8)
800165c8:	afc40030 	sw	a0,48(s8)
800165cc:	afc00034 	sw	zero,52(s8)
800165d0:	080059a0 	j	80016680 <printnum+0x1e4>
800165d4:	00000000 	nop
800165d8:	8fc50050 	lw	a1,80(s8)
800165dc:	24040010 	li	a0,16
800165e0:	14a4000f 	bne	a1,a0,80016620 <printnum+0x184>
800165e4:	00000000 	nop
800165e8:	8fc40030 	lw	a0,48(s8)
800165ec:	3084000f 	andi	a0,a0,0xf
800165f0:	afc40024 	sw	a0,36(s8)
800165f4:	8fc40034 	lw	a0,52(s8)
800165f8:	00042700 	sll	a0,a0,0x1c
800165fc:	8fc50030 	lw	a1,48(s8)
80016600:	00052902 	srl	a1,a1,0x4
80016604:	00a42025 	or	a0,a1,a0
80016608:	afc40030 	sw	a0,48(s8)
8001660c:	8fc40034 	lw	a0,52(s8)
80016610:	00042102 	srl	a0,a0,0x4
80016614:	afc40034 	sw	a0,52(s8)
80016618:	080059a0 	j	80016680 <printnum+0x1e4>
8001661c:	00000000 	nop
80016620:	8fc50050 	lw	a1,80(s8)
80016624:	24040008 	li	a0,8
80016628:	14a4000f 	bne	a1,a0,80016668 <printnum+0x1cc>
8001662c:	00000000 	nop
80016630:	8fc40030 	lw	a0,48(s8)
80016634:	30840007 	andi	a0,a0,0x7
80016638:	afc40024 	sw	a0,36(s8)
8001663c:	8fc40034 	lw	a0,52(s8)
80016640:	00042740 	sll	a0,a0,0x1d
80016644:	8fc50030 	lw	a1,48(s8)
80016648:	000528c2 	srl	a1,a1,0x3
8001664c:	00a42025 	or	a0,a1,a0
80016650:	afc40030 	sw	a0,48(s8)
80016654:	8fc40034 	lw	a0,52(s8)
80016658:	000420c2 	srl	a0,a0,0x3
8001665c:	afc40034 	sw	a0,52(s8)
80016660:	080059a0 	j	80016680 <printnum+0x1e4>
80016664:	00000000 	nop
80016668:	24040003 	li	a0,3
8001666c:	afc40024 	sw	a0,36(s8)
80016670:	24040001 	li	a0,1
80016674:	00002821 	move	a1,zero
80016678:	afc40030 	sw	a0,48(s8)
8001667c:	afc50034 	sw	a1,52(s8)
80016680:	8fc40024 	lw	a0,36(s8)
80016684:	afc40028 	sw	a0,40(s8)
80016688:	8fc20050 	lw	v0,80(s8)
8001668c:	00001821 	move	v1,zero
80016690:	8fc4004c 	lw	a0,76(s8)
80016694:	0083202b 	sltu	a0,a0,v1
80016698:	1480001d 	bnez	a0,80016710 <printnum+0x274>
8001669c:	00000000 	nop
800166a0:	8fc5004c 	lw	a1,76(s8)
800166a4:	00602021 	move	a0,v1
800166a8:	14a40005 	bne	a1,a0,800166c0 <printnum+0x224>
800166ac:	00000000 	nop
800166b0:	8fc40048 	lw	a0,72(s8)
800166b4:	0082102b 	sltu	v0,a0,v0
800166b8:	14400015 	bnez	v0,80016710 <printnum+0x274>
800166bc:	00000000 	nop
800166c0:	8fc20054 	lw	v0,84(s8)
800166c4:	2442ffff 	addiu	v0,v0,-1
800166c8:	8fc30050 	lw	v1,80(s8)
800166cc:	afa30010 	sw	v1,16(sp)
800166d0:	afa20014 	sw	v0,20(sp)
800166d4:	8fc20058 	lw	v0,88(s8)
800166d8:	afa20018 	sw	v0,24(sp)
800166dc:	8fc40040 	lw	a0,64(s8)
800166e0:	8fc50044 	lw	a1,68(s8)
800166e4:	8fc60030 	lw	a2,48(s8)
800166e8:	8fc70034 	lw	a3,52(s8)
800166ec:	0c005927 	jal	8001649c <printnum>
800166f0:	00000000 	nop
800166f4:	080059ca 	j	80016728 <printnum+0x28c>
800166f8:	00000000 	nop
800166fc:	8fc20040 	lw	v0,64(s8)
80016700:	8fc40058 	lw	a0,88(s8)
80016704:	8fc50044 	lw	a1,68(s8)
80016708:	0040f809 	jalr	v0
8001670c:	00000000 	nop
80016710:	8fc20054 	lw	v0,84(s8)
80016714:	2442ffff 	addiu	v0,v0,-1
80016718:	afc20054 	sw	v0,84(s8)
8001671c:	8fc20054 	lw	v0,84(s8)
80016720:	1c40fff6 	bgtz	v0,800166fc <printnum+0x260>
80016724:	00000000 	nop
80016728:	8fc30028 	lw	v1,40(s8)
8001672c:	3c028002 	lui	v0,0x8002
80016730:	2442813c 	addiu	v0,v0,-32452
80016734:	00621021 	addu	v0,v1,v0
80016738:	90420000 	lbu	v0,0(v0)
8001673c:	00401821 	move	v1,v0
80016740:	8fc20040 	lw	v0,64(s8)
80016744:	00602021 	move	a0,v1
80016748:	8fc50044 	lw	a1,68(s8)
8001674c:	0040f809 	jalr	v0
80016750:	00000000 	nop
80016754:	03c0e821 	move	sp,s8
80016758:	8fbf003c 	lw	ra,60(sp)
8001675c:	8fbe0038 	lw	s8,56(sp)
80016760:	27bd0040 	addiu	sp,sp,64
80016764:	03e00008 	jr	ra
80016768:	00000000 	nop

8001676c <getuint>:
8001676c:	27bdfff8 	addiu	sp,sp,-8
80016770:	afbe0004 	sw	s8,4(sp)
80016774:	03a0f021 	move	s8,sp
80016778:	afc40008 	sw	a0,8(s8)
8001677c:	afc5000c 	sw	a1,12(s8)
80016780:	8fc4000c 	lw	a0,12(s8)
80016784:	28840002 	slti	a0,a0,2
80016788:	1480000e 	bnez	a0,800167c4 <getuint+0x58>
8001678c:	00000000 	nop
80016790:	8fc20008 	lw	v0,8(s8)
80016794:	8c420000 	lw	v0,0(v0)
80016798:	24420007 	addiu	v0,v0,7
8001679c:	00401821 	move	v1,v0
800167a0:	2402fff8 	li	v0,-8
800167a4:	00621024 	and	v0,v1,v0
800167a8:	24440008 	addiu	a0,v0,8
800167ac:	8fc30008 	lw	v1,8(s8)
800167b0:	ac640000 	sw	a0,0(v1)
800167b4:	8c430004 	lw	v1,4(v0)
800167b8:	8c420000 	lw	v0,0(v0)
800167bc:	08005a06 	j	80016818 <getuint+0xac>
800167c0:	00000000 	nop
800167c4:	8fc4000c 	lw	a0,12(s8)
800167c8:	1080000b 	beqz	a0,800167f8 <getuint+0x8c>
800167cc:	00000000 	nop
800167d0:	8fc40008 	lw	a0,8(s8)
800167d4:	8c840000 	lw	a0,0(a0)
800167d8:	24860004 	addiu	a2,a0,4
800167dc:	8fc50008 	lw	a1,8(s8)
800167e0:	aca60000 	sw	a2,0(a1)
800167e4:	8c840000 	lw	a0,0(a0)
800167e8:	00801021 	move	v0,a0
800167ec:	00001821 	move	v1,zero
800167f0:	08005a06 	j	80016818 <getuint+0xac>
800167f4:	00000000 	nop
800167f8:	8fc40008 	lw	a0,8(s8)
800167fc:	8c840000 	lw	a0,0(a0)
80016800:	24860004 	addiu	a2,a0,4
80016804:	8fc50008 	lw	a1,8(s8)
80016808:	aca60000 	sw	a2,0(a1)
8001680c:	8c840000 	lw	a0,0(a0)
80016810:	00801021 	move	v0,a0
80016814:	00001821 	move	v1,zero
80016818:	03c0e821 	move	sp,s8
8001681c:	8fbe0004 	lw	s8,4(sp)
80016820:	27bd0008 	addiu	sp,sp,8
80016824:	03e00008 	jr	ra
80016828:	00000000 	nop

8001682c <getint>:
8001682c:	27bdfff8 	addiu	sp,sp,-8
80016830:	afbe0004 	sw	s8,4(sp)
80016834:	03a0f021 	move	s8,sp
80016838:	afc40008 	sw	a0,8(s8)
8001683c:	afc5000c 	sw	a1,12(s8)
80016840:	8fc4000c 	lw	a0,12(s8)
80016844:	28840002 	slti	a0,a0,2
80016848:	1480000e 	bnez	a0,80016884 <getint+0x58>
8001684c:	00000000 	nop
80016850:	8fc20008 	lw	v0,8(s8)
80016854:	8c420000 	lw	v0,0(v0)
80016858:	24420007 	addiu	v0,v0,7
8001685c:	00401821 	move	v1,v0
80016860:	2402fff8 	li	v0,-8
80016864:	00621024 	and	v0,v1,v0
80016868:	24440008 	addiu	a0,v0,8
8001686c:	8fc30008 	lw	v1,8(s8)
80016870:	ac640000 	sw	a0,0(v1)
80016874:	8c430004 	lw	v1,4(v0)
80016878:	8c420000 	lw	v0,0(v0)
8001687c:	08005a38 	j	800168e0 <getint+0xb4>
80016880:	00000000 	nop
80016884:	8fc4000c 	lw	a0,12(s8)
80016888:	1080000c 	beqz	a0,800168bc <getint+0x90>
8001688c:	00000000 	nop
80016890:	8fc40008 	lw	a0,8(s8)
80016894:	8c840000 	lw	a0,0(a0)
80016898:	24860004 	addiu	a2,a0,4
8001689c:	8fc50008 	lw	a1,8(s8)
800168a0:	aca60000 	sw	a2,0(a1)
800168a4:	8c840000 	lw	a0,0(a0)
800168a8:	00801021 	move	v0,a0
800168ac:	000427c3 	sra	a0,a0,0x1f
800168b0:	00801821 	move	v1,a0
800168b4:	08005a38 	j	800168e0 <getint+0xb4>
800168b8:	00000000 	nop
800168bc:	8fc40008 	lw	a0,8(s8)
800168c0:	8c840000 	lw	a0,0(a0)
800168c4:	24860004 	addiu	a2,a0,4
800168c8:	8fc50008 	lw	a1,8(s8)
800168cc:	aca60000 	sw	a2,0(a1)
800168d0:	8c840000 	lw	a0,0(a0)
800168d4:	00801021 	move	v0,a0
800168d8:	000427c3 	sra	a0,a0,0x1f
800168dc:	00801821 	move	v1,a0
800168e0:	03c0e821 	move	sp,s8
800168e4:	8fbe0004 	lw	s8,4(sp)
800168e8:	27bd0008 	addiu	sp,sp,8
800168ec:	03e00008 	jr	ra
800168f0:	00000000 	nop

800168f4 <printfmt>:
800168f4:	27bdffe0 	addiu	sp,sp,-32
800168f8:	afbf001c 	sw	ra,28(sp)
800168fc:	afbe0018 	sw	s8,24(sp)
80016900:	03a0f021 	move	s8,sp
80016904:	afc40020 	sw	a0,32(s8)
80016908:	afc50024 	sw	a1,36(s8)
8001690c:	afc7002c 	sw	a3,44(s8)
80016910:	afc60028 	sw	a2,40(s8)
80016914:	27c2002c 	addiu	v0,s8,44
80016918:	afc20010 	sw	v0,16(s8)
8001691c:	8fc20010 	lw	v0,16(s8)
80016920:	8fc40020 	lw	a0,32(s8)
80016924:	8fc50024 	lw	a1,36(s8)
80016928:	8fc60028 	lw	a2,40(s8)
8001692c:	00403821 	move	a3,v0
80016930:	0c005a54 	jal	80016950 <vprintfmt>
80016934:	00000000 	nop
80016938:	03c0e821 	move	sp,s8
8001693c:	8fbf001c 	lw	ra,28(sp)
80016940:	8fbe0018 	lw	s8,24(sp)
80016944:	27bd0020 	addiu	sp,sp,32
80016948:	03e00008 	jr	ra
8001694c:	00000000 	nop

80016950 <vprintfmt>:
80016950:	27bdffb0 	addiu	sp,sp,-80
80016954:	afbf004c 	sw	ra,76(sp)
80016958:	afbe0048 	sw	s8,72(sp)
8001695c:	afb10044 	sw	s1,68(sp)
80016960:	afb00040 	sw	s0,64(sp)
80016964:	03a0f021 	move	s8,sp
80016968:	afc40050 	sw	a0,80(s8)
8001696c:	afc50054 	sw	a1,84(s8)
80016970:	afc60058 	sw	a2,88(s8)
80016974:	afc7005c 	sw	a3,92(s8)
80016978:	08005a67 	j	8001699c <vprintfmt+0x4c>
8001697c:	00000000 	nop
80016980:	12000184 	beqz	s0,80016f94 <vprintfmt+0x644>
80016984:	00000000 	nop
80016988:	8fc20050 	lw	v0,80(s8)
8001698c:	02002021 	move	a0,s0
80016990:	8fc50054 	lw	a1,84(s8)
80016994:	0040f809 	jalr	v0
80016998:	00000000 	nop
8001699c:	8fc20058 	lw	v0,88(s8)
800169a0:	90420000 	lbu	v0,0(v0)
800169a4:	00408021 	move	s0,v0
800169a8:	3a020025 	xori	v0,s0,0x25
800169ac:	0002102b 	sltu	v0,zero,v0
800169b0:	304200ff 	andi	v0,v0,0xff
800169b4:	8fc30058 	lw	v1,88(s8)
800169b8:	24630001 	addiu	v1,v1,1
800169bc:	afc30058 	sw	v1,88(s8)
800169c0:	1440ffef 	bnez	v0,80016980 <vprintfmt+0x30>
800169c4:	00000000 	nop
800169c8:	24020020 	li	v0,32
800169cc:	a3c20020 	sb	v0,32(s8)
800169d0:	2402ffff 	li	v0,-1
800169d4:	afc2002c 	sw	v0,44(s8)
800169d8:	8fc2002c 	lw	v0,44(s8)
800169dc:	afc20030 	sw	v0,48(s8)
800169e0:	afc00024 	sw	zero,36(s8)
800169e4:	8fc20024 	lw	v0,36(s8)
800169e8:	afc20028 	sw	v0,40(s8)
800169ec:	08005a81 	j	80016a04 <vprintfmt+0xb4>
800169f0:	00000000 	nop
800169f4:	00000000 	nop
800169f8:	08005a81 	j	80016a04 <vprintfmt+0xb4>
800169fc:	00000000 	nop
80016a00:	00000000 	nop
80016a04:	8fc20058 	lw	v0,88(s8)
80016a08:	90420000 	lbu	v0,0(v0)
80016a0c:	00408021 	move	s0,v0
80016a10:	02001021 	move	v0,s0
80016a14:	8fc30058 	lw	v1,88(s8)
80016a18:	24630001 	addiu	v1,v1,1
80016a1c:	afc30058 	sw	v1,88(s8)
80016a20:	2442ffdd 	addiu	v0,v0,-35
80016a24:	2c430056 	sltiu	v1,v0,86
80016a28:	10600144 	beqz	v1,80016f3c <vprintfmt+0x5ec>
80016a2c:	00000000 	nop
80016a30:	00021880 	sll	v1,v0,0x2
80016a34:	3c028002 	lui	v0,0x8002
80016a38:	24428168 	addiu	v0,v0,-32408
80016a3c:	00621021 	addu	v0,v1,v0
80016a40:	8c420000 	lw	v0,0(v0)
80016a44:	00400008 	jr	v0
80016a48:	00000000 	nop
80016a4c:	2402002d 	li	v0,45
80016a50:	a3c20020 	sb	v0,32(s8)
80016a54:	08005a81 	j	80016a04 <vprintfmt+0xb4>
80016a58:	00000000 	nop
80016a5c:	24020030 	li	v0,48
80016a60:	a3c20020 	sb	v0,32(s8)
80016a64:	08005a81 	j	80016a04 <vprintfmt+0xb4>
80016a68:	00000000 	nop
80016a6c:	afc0002c 	sw	zero,44(s8)
80016a70:	8fc2002c 	lw	v0,44(s8)
80016a74:	00021040 	sll	v0,v0,0x1
80016a78:	00021880 	sll	v1,v0,0x2
80016a7c:	00431021 	addu	v0,v0,v1
80016a80:	00501021 	addu	v0,v0,s0
80016a84:	2442ffd0 	addiu	v0,v0,-48
80016a88:	afc2002c 	sw	v0,44(s8)
80016a8c:	8fc20058 	lw	v0,88(s8)
80016a90:	90420000 	lbu	v0,0(v0)
80016a94:	00408021 	move	s0,v0
80016a98:	2a020030 	slti	v0,s0,48
80016a9c:	1440001a 	bnez	v0,80016b08 <vprintfmt+0x1b8>
80016aa0:	00000000 	nop
80016aa4:	2a02003a 	slti	v0,s0,58
80016aa8:	1040001a 	beqz	v0,80016b14 <vprintfmt+0x1c4>
80016aac:	00000000 	nop
80016ab0:	8fc20058 	lw	v0,88(s8)
80016ab4:	24420001 	addiu	v0,v0,1
80016ab8:	afc20058 	sw	v0,88(s8)
80016abc:	08005a9c 	j	80016a70 <vprintfmt+0x120>
80016ac0:	00000000 	nop
80016ac4:	8fc2005c 	lw	v0,92(s8)
80016ac8:	24430004 	addiu	v1,v0,4
80016acc:	afc3005c 	sw	v1,92(s8)
80016ad0:	8c420000 	lw	v0,0(v0)
80016ad4:	afc2002c 	sw	v0,44(s8)
80016ad8:	08005ac6 	j	80016b18 <vprintfmt+0x1c8>
80016adc:	00000000 	nop
80016ae0:	8fc20030 	lw	v0,48(s8)
80016ae4:	0441ffc3 	bgez	v0,800169f4 <vprintfmt+0xa4>
80016ae8:	00000000 	nop
80016aec:	afc00030 	sw	zero,48(s8)
80016af0:	08005a81 	j	80016a04 <vprintfmt+0xb4>
80016af4:	00000000 	nop
80016af8:	24020001 	li	v0,1
80016afc:	afc20024 	sw	v0,36(s8)
80016b00:	08005a81 	j	80016a04 <vprintfmt+0xb4>
80016b04:	00000000 	nop
80016b08:	00000000 	nop
80016b0c:	08005ac6 	j	80016b18 <vprintfmt+0x1c8>
80016b10:	00000000 	nop
80016b14:	00000000 	nop
80016b18:	8fc20030 	lw	v0,48(s8)
80016b1c:	0441ffb8 	bgez	v0,80016a00 <vprintfmt+0xb0>
80016b20:	00000000 	nop
80016b24:	8fc2002c 	lw	v0,44(s8)
80016b28:	afc20030 	sw	v0,48(s8)
80016b2c:	2402ffff 	li	v0,-1
80016b30:	afc2002c 	sw	v0,44(s8)
80016b34:	08005a81 	j	80016a04 <vprintfmt+0xb4>
80016b38:	00000000 	nop
80016b3c:	8fc20028 	lw	v0,40(s8)
80016b40:	24420001 	addiu	v0,v0,1
80016b44:	afc20028 	sw	v0,40(s8)
80016b48:	08005a81 	j	80016a04 <vprintfmt+0xb4>
80016b4c:	00000000 	nop
80016b50:	8fc2005c 	lw	v0,92(s8)
80016b54:	24430004 	addiu	v1,v0,4
80016b58:	afc3005c 	sw	v1,92(s8)
80016b5c:	8c430000 	lw	v1,0(v0)
80016b60:	8fc20050 	lw	v0,80(s8)
80016b64:	00602021 	move	a0,v1
80016b68:	8fc50054 	lw	a1,84(s8)
80016b6c:	0040f809 	jalr	v0
80016b70:	00000000 	nop
80016b74:	08005be2 	j	80016f88 <vprintfmt+0x638>
80016b78:	00000000 	nop
80016b7c:	8fc2005c 	lw	v0,92(s8)
80016b80:	24430004 	addiu	v1,v0,4
80016b84:	afc3005c 	sw	v1,92(s8)
80016b88:	8c5f0000 	lw	ra,0(v0)
80016b8c:	07e10002 	bgez	ra,80016b98 <vprintfmt+0x248>
80016b90:	00000000 	nop
80016b94:	001ff823 	negu	ra,ra
80016b98:	2be20007 	slti	v0,ra,7
80016b9c:	10400009 	beqz	v0,80016bc4 <vprintfmt+0x274>
80016ba0:	00000000 	nop
80016ba4:	03e01821 	move	v1,ra
80016ba8:	3c028002 	lui	v0,0x8002
80016bac:	00031880 	sll	v1,v1,0x2
80016bb0:	24428120 	addiu	v0,v0,-32480
80016bb4:	00621021 	addu	v0,v1,v0
80016bb8:	8c510000 	lw	s1,0(v0)
80016bbc:	1620000b 	bnez	s1,80016bec <vprintfmt+0x29c>
80016bc0:	00000000 	nop
80016bc4:	8fc40050 	lw	a0,80(s8)
80016bc8:	8fc50054 	lw	a1,84(s8)
80016bcc:	3c028002 	lui	v0,0x8002
80016bd0:	24468150 	addiu	a2,v0,-32432
80016bd4:	03e03821 	move	a3,ra
80016bd8:	0c005a3d 	jal	800168f4 <printfmt>
80016bdc:	00000000 	nop
80016be0:	00000000 	nop
80016be4:	08005be2 	j	80016f88 <vprintfmt+0x638>
80016be8:	00000000 	nop
80016bec:	8fc40050 	lw	a0,80(s8)
80016bf0:	8fc50054 	lw	a1,84(s8)
80016bf4:	3c028002 	lui	v0,0x8002
80016bf8:	2446815c 	addiu	a2,v0,-32420
80016bfc:	02203821 	move	a3,s1
80016c00:	0c005a3d 	jal	800168f4 <printfmt>
80016c04:	00000000 	nop
80016c08:	08005be2 	j	80016f88 <vprintfmt+0x638>
80016c0c:	00000000 	nop
80016c10:	8fc2005c 	lw	v0,92(s8)
80016c14:	24430004 	addiu	v1,v0,4
80016c18:	afc3005c 	sw	v1,92(s8)
80016c1c:	8c510000 	lw	s1,0(v0)
80016c20:	16200003 	bnez	s1,80016c30 <vprintfmt+0x2e0>
80016c24:	00000000 	nop
80016c28:	3c028002 	lui	v0,0x8002
80016c2c:	24518160 	addiu	s1,v0,-32416
80016c30:	8fc20030 	lw	v0,48(s8)
80016c34:	18400037 	blez	v0,80016d14 <vprintfmt+0x3c4>
80016c38:	00000000 	nop
80016c3c:	93c30020 	lbu	v1,32(s8)
80016c40:	2402002d 	li	v0,45
80016c44:	10620036 	beq	v1,v0,80016d20 <vprintfmt+0x3d0>
80016c48:	00000000 	nop
80016c4c:	8fd00030 	lw	s0,48(s8)
80016c50:	8fc2002c 	lw	v0,44(s8)
80016c54:	02202021 	move	a0,s1
80016c58:	00402821 	move	a1,v0
80016c5c:	0c0056cf 	jal	80015b3c <strnlen>
80016c60:	00000000 	nop
80016c64:	02021023 	subu	v0,s0,v0
80016c68:	afc20030 	sw	v0,48(s8)
80016c6c:	08005b26 	j	80016c98 <vprintfmt+0x348>
80016c70:	00000000 	nop
80016c74:	93c30020 	lbu	v1,32(s8)
80016c78:	8fc20050 	lw	v0,80(s8)
80016c7c:	00602021 	move	a0,v1
80016c80:	8fc50054 	lw	a1,84(s8)
80016c84:	0040f809 	jalr	v0
80016c88:	00000000 	nop
80016c8c:	8fc20030 	lw	v0,48(s8)
80016c90:	2442ffff 	addiu	v0,v0,-1
80016c94:	afc20030 	sw	v0,48(s8)
80016c98:	8fc20030 	lw	v0,48(s8)
80016c9c:	1c40fff5 	bgtz	v0,80016c74 <vprintfmt+0x324>
80016ca0:	00000000 	nop
80016ca4:	08005b49 	j	80016d24 <vprintfmt+0x3d4>
80016ca8:	00000000 	nop
80016cac:	8fc20024 	lw	v0,36(s8)
80016cb0:	1040000e 	beqz	v0,80016cec <vprintfmt+0x39c>
80016cb4:	00000000 	nop
80016cb8:	2a020020 	slti	v0,s0,32
80016cbc:	14400004 	bnez	v0,80016cd0 <vprintfmt+0x380>
80016cc0:	00000000 	nop
80016cc4:	2a02007f 	slti	v0,s0,127
80016cc8:	14400008 	bnez	v0,80016cec <vprintfmt+0x39c>
80016ccc:	00000000 	nop
80016cd0:	8fc20050 	lw	v0,80(s8)
80016cd4:	2404003f 	li	a0,63
80016cd8:	8fc50054 	lw	a1,84(s8)
80016cdc:	0040f809 	jalr	v0
80016ce0:	00000000 	nop
80016ce4:	08005b40 	j	80016d00 <vprintfmt+0x3b0>
80016ce8:	00000000 	nop
80016cec:	8fc20050 	lw	v0,80(s8)
80016cf0:	02002021 	move	a0,s0
80016cf4:	8fc50054 	lw	a1,84(s8)
80016cf8:	0040f809 	jalr	v0
80016cfc:	00000000 	nop
80016d00:	8fc20030 	lw	v0,48(s8)
80016d04:	2442ffff 	addiu	v0,v0,-1
80016d08:	afc20030 	sw	v0,48(s8)
80016d0c:	08005b49 	j	80016d24 <vprintfmt+0x3d4>
80016d10:	00000000 	nop
80016d14:	00000000 	nop
80016d18:	08005b49 	j	80016d24 <vprintfmt+0x3d4>
80016d1c:	00000000 	nop
80016d20:	00000000 	nop
80016d24:	92220000 	lbu	v0,0(s1)
80016d28:	00408021 	move	s0,v0
80016d2c:	0010102b 	sltu	v0,zero,s0
80016d30:	304200ff 	andi	v0,v0,0xff
80016d34:	26310001 	addiu	s1,s1,1
80016d38:	10400014 	beqz	v0,80016d8c <vprintfmt+0x43c>
80016d3c:	00000000 	nop
80016d40:	8fc2002c 	lw	v0,44(s8)
80016d44:	0440ffd9 	bltz	v0,80016cac <vprintfmt+0x35c>
80016d48:	00000000 	nop
80016d4c:	8fc2002c 	lw	v0,44(s8)
80016d50:	2442ffff 	addiu	v0,v0,-1
80016d54:	afc2002c 	sw	v0,44(s8)
80016d58:	8fc2002c 	lw	v0,44(s8)
80016d5c:	0441ffd3 	bgez	v0,80016cac <vprintfmt+0x35c>
80016d60:	00000000 	nop
80016d64:	08005b63 	j	80016d8c <vprintfmt+0x43c>
80016d68:	00000000 	nop
80016d6c:	8fc20050 	lw	v0,80(s8)
80016d70:	24040020 	li	a0,32
80016d74:	8fc50054 	lw	a1,84(s8)
80016d78:	0040f809 	jalr	v0
80016d7c:	00000000 	nop
80016d80:	8fc20030 	lw	v0,48(s8)
80016d84:	2442ffff 	addiu	v0,v0,-1
80016d88:	afc20030 	sw	v0,48(s8)
80016d8c:	8fc20030 	lw	v0,48(s8)
80016d90:	1c40fff6 	bgtz	v0,80016d6c <vprintfmt+0x41c>
80016d94:	00000000 	nop
80016d98:	08005be2 	j	80016f88 <vprintfmt+0x638>
80016d9c:	00000000 	nop
80016da0:	27c2005c 	addiu	v0,s8,92
80016da4:	00402021 	move	a0,v0
80016da8:	8fc50028 	lw	a1,40(s8)
80016dac:	0c005a0b 	jal	8001682c <getint>
80016db0:	00000000 	nop
80016db4:	afc20038 	sw	v0,56(s8)
80016db8:	afc3003c 	sw	v1,60(s8)
80016dbc:	8fc20038 	lw	v0,56(s8)
80016dc0:	8fc3003c 	lw	v1,60(s8)
80016dc4:	04610011 	bgez	v1,80016e0c <vprintfmt+0x4bc>
80016dc8:	00000000 	nop
80016dcc:	8fc20050 	lw	v0,80(s8)
80016dd0:	2404002d 	li	a0,45
80016dd4:	8fc50054 	lw	a1,84(s8)
80016dd8:	0040f809 	jalr	v0
80016ddc:	00000000 	nop
80016de0:	8fc60038 	lw	a2,56(s8)
80016de4:	8fc7003c 	lw	a3,60(s8)
80016de8:	00002021 	move	a0,zero
80016dec:	00002821 	move	a1,zero
80016df0:	00861023 	subu	v0,a0,a2
80016df4:	0082402b 	sltu	t0,a0,v0
80016df8:	00a71823 	subu	v1,a1,a3
80016dfc:	00682023 	subu	a0,v1,t0
80016e00:	00801821 	move	v1,a0
80016e04:	afc20038 	sw	v0,56(s8)
80016e08:	afc3003c 	sw	v1,60(s8)
80016e0c:	2402000a 	li	v0,10
80016e10:	afc20034 	sw	v0,52(s8)
80016e14:	08005bba 	j	80016ee8 <vprintfmt+0x598>
80016e18:	00000000 	nop
80016e1c:	27c2005c 	addiu	v0,s8,92
80016e20:	00402021 	move	a0,v0
80016e24:	8fc50028 	lw	a1,40(s8)
80016e28:	0c0059db 	jal	8001676c <getuint>
80016e2c:	00000000 	nop
80016e30:	afc20038 	sw	v0,56(s8)
80016e34:	afc3003c 	sw	v1,60(s8)
80016e38:	2402000a 	li	v0,10
80016e3c:	afc20034 	sw	v0,52(s8)
80016e40:	08005bba 	j	80016ee8 <vprintfmt+0x598>
80016e44:	00000000 	nop
80016e48:	27c2005c 	addiu	v0,s8,92
80016e4c:	00402021 	move	a0,v0
80016e50:	8fc50028 	lw	a1,40(s8)
80016e54:	0c0059db 	jal	8001676c <getuint>
80016e58:	00000000 	nop
80016e5c:	afc20038 	sw	v0,56(s8)
80016e60:	afc3003c 	sw	v1,60(s8)
80016e64:	24020008 	li	v0,8
80016e68:	afc20034 	sw	v0,52(s8)
80016e6c:	08005bba 	j	80016ee8 <vprintfmt+0x598>
80016e70:	00000000 	nop
80016e74:	8fc20050 	lw	v0,80(s8)
80016e78:	24040030 	li	a0,48
80016e7c:	8fc50054 	lw	a1,84(s8)
80016e80:	0040f809 	jalr	v0
80016e84:	00000000 	nop
80016e88:	8fc20050 	lw	v0,80(s8)
80016e8c:	24040078 	li	a0,120
80016e90:	8fc50054 	lw	a1,84(s8)
80016e94:	0040f809 	jalr	v0
80016e98:	00000000 	nop
80016e9c:	8fc2005c 	lw	v0,92(s8)
80016ea0:	24430004 	addiu	v1,v0,4
80016ea4:	afc3005c 	sw	v1,92(s8)
80016ea8:	8c420000 	lw	v0,0(v0)
80016eac:	afc20038 	sw	v0,56(s8)
80016eb0:	afc0003c 	sw	zero,60(s8)
80016eb4:	24020010 	li	v0,16
80016eb8:	afc20034 	sw	v0,52(s8)
80016ebc:	08005bba 	j	80016ee8 <vprintfmt+0x598>
80016ec0:	00000000 	nop
80016ec4:	27c2005c 	addiu	v0,s8,92
80016ec8:	00402021 	move	a0,v0
80016ecc:	8fc50028 	lw	a1,40(s8)
80016ed0:	0c0059db 	jal	8001676c <getuint>
80016ed4:	00000000 	nop
80016ed8:	afc20038 	sw	v0,56(s8)
80016edc:	afc3003c 	sw	v1,60(s8)
80016ee0:	24020010 	li	v0,16
80016ee4:	afc20034 	sw	v0,52(s8)
80016ee8:	8fc30034 	lw	v1,52(s8)
80016eec:	93c20020 	lbu	v0,32(s8)
80016ef0:	afa30010 	sw	v1,16(sp)
80016ef4:	8fc30030 	lw	v1,48(s8)
80016ef8:	afa30014 	sw	v1,20(sp)
80016efc:	afa20018 	sw	v0,24(sp)
80016f00:	8fc40050 	lw	a0,80(s8)
80016f04:	8fc50054 	lw	a1,84(s8)
80016f08:	8fc60038 	lw	a2,56(s8)
80016f0c:	8fc7003c 	lw	a3,60(s8)
80016f10:	0c005927 	jal	8001649c <printnum>
80016f14:	00000000 	nop
80016f18:	08005be2 	j	80016f88 <vprintfmt+0x638>
80016f1c:	00000000 	nop
80016f20:	8fc20050 	lw	v0,80(s8)
80016f24:	02002021 	move	a0,s0
80016f28:	8fc50054 	lw	a1,84(s8)
80016f2c:	0040f809 	jalr	v0
80016f30:	00000000 	nop
80016f34:	08005be2 	j	80016f88 <vprintfmt+0x638>
80016f38:	00000000 	nop
80016f3c:	8fc20050 	lw	v0,80(s8)
80016f40:	24040025 	li	a0,37
80016f44:	8fc50054 	lw	a1,84(s8)
80016f48:	0040f809 	jalr	v0
80016f4c:	00000000 	nop
80016f50:	8fc20058 	lw	v0,88(s8)
80016f54:	2442ffff 	addiu	v0,v0,-1
80016f58:	afc20058 	sw	v0,88(s8)
80016f5c:	08005bdc 	j	80016f70 <vprintfmt+0x620>
80016f60:	00000000 	nop
80016f64:	8fc20058 	lw	v0,88(s8)
80016f68:	2442ffff 	addiu	v0,v0,-1
80016f6c:	afc20058 	sw	v0,88(s8)
80016f70:	8fc20058 	lw	v0,88(s8)
80016f74:	2442ffff 	addiu	v0,v0,-1
80016f78:	90430000 	lbu	v1,0(v0)
80016f7c:	24020025 	li	v0,37
80016f80:	1462fff8 	bne	v1,v0,80016f64 <vprintfmt+0x614>
80016f84:	00000000 	nop
80016f88:	00000000 	nop
80016f8c:	08005a67 	j	8001699c <vprintfmt+0x4c>
80016f90:	00000000 	nop
80016f94:	03c0e821 	move	sp,s8
80016f98:	8fbf004c 	lw	ra,76(sp)
80016f9c:	8fbe0048 	lw	s8,72(sp)
80016fa0:	8fb10044 	lw	s1,68(sp)
80016fa4:	8fb00040 	lw	s0,64(sp)
80016fa8:	27bd0050 	addiu	sp,sp,80
80016fac:	03e00008 	jr	ra
80016fb0:	00000000 	nop

80016fb4 <sprintputch>:
80016fb4:	27bdfff8 	addiu	sp,sp,-8
80016fb8:	afbe0004 	sw	s8,4(sp)
80016fbc:	03a0f021 	move	s8,sp
80016fc0:	afc40008 	sw	a0,8(s8)
80016fc4:	afc5000c 	sw	a1,12(s8)
80016fc8:	8fc2000c 	lw	v0,12(s8)
80016fcc:	8c420008 	lw	v0,8(v0)
80016fd0:	24430001 	addiu	v1,v0,1
80016fd4:	8fc2000c 	lw	v0,12(s8)
80016fd8:	ac430008 	sw	v1,8(v0)
80016fdc:	8fc2000c 	lw	v0,12(s8)
80016fe0:	8c430000 	lw	v1,0(v0)
80016fe4:	8fc2000c 	lw	v0,12(s8)
80016fe8:	8c420004 	lw	v0,4(v0)
80016fec:	0062102b 	sltu	v0,v1,v0
80016ff0:	10400009 	beqz	v0,80017018 <sprintputch+0x64>
80016ff4:	00000000 	nop
80016ff8:	8fc2000c 	lw	v0,12(s8)
80016ffc:	8c420000 	lw	v0,0(v0)
80017000:	8fc30008 	lw	v1,8(s8)
80017004:	306300ff 	andi	v1,v1,0xff
80017008:	a0430000 	sb	v1,0(v0)
8001700c:	24430001 	addiu	v1,v0,1
80017010:	8fc2000c 	lw	v0,12(s8)
80017014:	ac430000 	sw	v1,0(v0)
80017018:	03c0e821 	move	sp,s8
8001701c:	8fbe0004 	lw	s8,4(sp)
80017020:	27bd0008 	addiu	sp,sp,8
80017024:	03e00008 	jr	ra
80017028:	00000000 	nop

8001702c <snprintf>:
8001702c:	27bdffe0 	addiu	sp,sp,-32
80017030:	afbf001c 	sw	ra,28(sp)
80017034:	afbe0018 	sw	s8,24(sp)
80017038:	03a0f021 	move	s8,sp
8001703c:	afc40020 	sw	a0,32(s8)
80017040:	afc50024 	sw	a1,36(s8)
80017044:	afc7002c 	sw	a3,44(s8)
80017048:	afc60028 	sw	a2,40(s8)
8001704c:	27c2002c 	addiu	v0,s8,44
80017050:	afc20014 	sw	v0,20(s8)
80017054:	8fc20014 	lw	v0,20(s8)
80017058:	8fc40020 	lw	a0,32(s8)
8001705c:	8fc50024 	lw	a1,36(s8)
80017060:	8fc60028 	lw	a2,40(s8)
80017064:	00403821 	move	a3,v0
80017068:	0c005c24 	jal	80017090 <vsnprintf>
8001706c:	00000000 	nop
80017070:	afc20010 	sw	v0,16(s8)
80017074:	8fc20010 	lw	v0,16(s8)
80017078:	03c0e821 	move	sp,s8
8001707c:	8fbf001c 	lw	ra,28(sp)
80017080:	8fbe0018 	lw	s8,24(sp)
80017084:	27bd0020 	addiu	sp,sp,32
80017088:	03e00008 	jr	ra
8001708c:	00000000 	nop

80017090 <vsnprintf>:
80017090:	27bdffd8 	addiu	sp,sp,-40
80017094:	afbf0024 	sw	ra,36(sp)
80017098:	afbe0020 	sw	s8,32(sp)
8001709c:	03a0f021 	move	s8,sp
800170a0:	afc40028 	sw	a0,40(s8)
800170a4:	afc5002c 	sw	a1,44(s8)
800170a8:	afc60030 	sw	a2,48(s8)
800170ac:	afc70034 	sw	a3,52(s8)
800170b0:	8fc2002c 	lw	v0,44(s8)
800170b4:	2442ffff 	addiu	v0,v0,-1
800170b8:	8fc30028 	lw	v1,40(s8)
800170bc:	00621021 	addu	v0,v1,v0
800170c0:	8fc30028 	lw	v1,40(s8)
800170c4:	afc30010 	sw	v1,16(s8)
800170c8:	afc20014 	sw	v0,20(s8)
800170cc:	afc00018 	sw	zero,24(s8)
800170d0:	8fc20028 	lw	v0,40(s8)
800170d4:	10400006 	beqz	v0,800170f0 <vsnprintf+0x60>
800170d8:	00000000 	nop
800170dc:	8fc30010 	lw	v1,16(s8)
800170e0:	8fc20014 	lw	v0,20(s8)
800170e4:	0043102b 	sltu	v0,v0,v1
800170e8:	10400004 	beqz	v0,800170fc <vsnprintf+0x6c>
800170ec:	00000000 	nop
800170f0:	2402fffd 	li	v0,-3
800170f4:	08005c4b 	j	8001712c <vsnprintf+0x9c>
800170f8:	00000000 	nop
800170fc:	3c028001 	lui	v0,0x8001
80017100:	24426fb4 	addiu	v0,v0,28596
80017104:	00402021 	move	a0,v0
80017108:	27c20010 	addiu	v0,s8,16
8001710c:	00402821 	move	a1,v0
80017110:	8fc60030 	lw	a2,48(s8)
80017114:	8fc70034 	lw	a3,52(s8)
80017118:	0c005a54 	jal	80016950 <vprintfmt>
8001711c:	00000000 	nop
80017120:	8fc20010 	lw	v0,16(s8)
80017124:	a0400000 	sb	zero,0(v0)
80017128:	8fc20018 	lw	v0,24(s8)
8001712c:	03c0e821 	move	sp,s8
80017130:	8fbf0024 	lw	ra,36(sp)
80017134:	8fbe0020 	lw	s8,32(sp)
80017138:	27bd0028 	addiu	sp,sp,40
8001713c:	03e00008 	jr	ra
80017140:	00000000 	nop
